

Microchip Technology PIC LITE Macro Assembler V2.00 build -1524193055 
                                                                                               Tue Oct 23 23:31:01 2018

Microchip Technology Omniscient Code Generator v2.00 (Free mode) build 20180527130849
     1  0000                     
      + 0000                     
     2                           ; Version 2.00
     3                           ; Generated 27/05/2018 GMT
     4                           
     5                           ; 
     6                           ; Copyright © 2018, Microchip Technology Inc. and its subsidiaries ("Microchip")
     7                           ; All rights reserved.
     8                           ; 
     9                           ; This software is developed by Microchip Technology Inc. and its subsidiaries ("Microch
                                 ip").
    10                           ; 
    11                           ; Redistribution and use in source and binary forms, with or without modification, are
    12                           ; permitted provided that the following conditions are met:
    13                           ; 
    14                           ;     1. Redistributions of source code must retain the above copyright notice, this lis
                                 t of
    15                           ;        conditions and the following disclaimer.
    16                           ; 
    17                           ;     2. Redistributions in binary form must reproduce the above copyright notice, this 
                                 list
    18                           ;        of conditions and the following disclaimer in the documentation and/or other
    19                           ;        materials provided with the distribution.
    20                           ; 
    21                           ;     3. Microchip's name may not be used to endorse or promote products derived from th
                                 is
    22                           ;        software without specific prior written permission.
    23                           ; 
    24                           ; THIS SOFTWARE IS PROVIDED BY MICROCHIP "AS IS" AND ANY EXPRESS OR IMPLIED WARRANTIES,

    25                           ; INCLUDING, BUT NOT LIMITED TO, THE IMPLIED WARRANTIES OF MERCHANTABILITY AND FITNESS F
                                 OR
    26                           ; PURPOSE ARE DISCLAIMED.  IN NO EVENT SHALL MICROCHIP BE LIABLE FOR ANY DIRECT, INDIREC
                                 T,
    27                           ; INCIDENTAL, SPECIAL, EXEMPLARY, OR CONSEQUENTIAL DAMAGES (INCLUDING BUT NOT LIMITED TO
                                 
    28                           ; PROCUREMENT OF SUBSTITUTE GOODS OR SERVICES; LOSS OF USE, DATA OR PROFITS; OR BUSINESS
                                 
    29                           ; INTERRUPTION) HOWSOEVER CAUSED AND ON ANY THEORY OF LIABILITY, WHETHER IN CONTRACT, ST
                                 RICT
    30                           ; LIABILITY, OR TORT (INCLUDING NEGLIGENCE OR OTHERWISE) ARISING IN ANY WAY OUT OF THE U
                                 SE OF
    31                           ; THIS SOFTWARE, EVEN IF ADVISED OF THE POSSIBILITY OF SUCH DAMAGE.
    32                           ; 
    33                           
    34                           
    35                           ; 
    36                           ; Code-generator required, PIC16F18323 Definitions
    37                           ; 
    38  0008                     fsr0h equ 05h
    39  0005                     fsr0l equ 04h
    40  0004                     fsr1h equ 07h
    41  0007                     fsr1l equ 06h
    42  0006                     indf equ 00h
    43  0000                     indf0 equ 00h
    44  0000                     indf1 equ 01h
    45  0001                     intcon equ 0Bh
    46  000B                     pc equ 02h
    47  0002                     pcl equ 02h
    48  0002                     pclath equ 0Ah
    49  000A                     status equ 03h
    50  0003                     wreg equ 09h
    51  0009                     
     2                           opt pagewidth 120
     3  0000                     byte0	macro	val
     4                           	(getbyte(val,0))
     5                           endm
     6  0000                     byte1	macro	val
     7                           	(getbyte(val,1))
     8                           endm
     9  0000                     byte2	macro	val
    10                           	(getbyte(val,2))
    11                           endm
    12  0000                     byte3	macro	val
    13                           	(getbyte(val,3))
    14                           endm
    15  0000                     byte4	macro	val
    16                           	(getbyte(val,4))
    17                           endm
    18  0000                     byte5	macro	val
    19                           	(getbyte(val,5))
    20                           endm
    21  0000                     byte6	macro	val
    22                           	(getbyte(val,6))
    23                           endm
    24  0000                     byte7	macro	val
    25                           	(getbyte(val,7))
    26                           endm
    27  0000                     getword	macro	val,pos
    28                           	(((val) >> (8 * pos)) and 0xffff)
    29                           endm
    30  0000                     word0	macro	val
    31                           	(getword(val,0))
    32                           endm
    33  0000                     word1	macro	val
    34                           	(getword(val,2))
    35                           endm
    36  0000                     word2	macro	val
    37                           	(getword(val,4))
    38                           endm
    39  0000                     word3	macro	val
    40                           	(getword(val,6))
    41                           endm
    42  0000                     gettword	macro	val,pos
    43                           	(((val) >> (8 * pos)) and 0xffffff)
    44                           endm
    45  0000                     tword0	macro	val
    46                           	(gettword(val,0))
    47                           endm
    48  0000                     tword1	macro	val
    49                           	(gettword(val,3))
    50                           endm
    51  0000                     tword2	macro	val
    52                           	(gettword(val,6))
    53                           endm
    54  0000                     getdword	macro	val,pos
    55                           	(((val) >> (8 * pos)) and 0xffffffff)
    56                           endm
    57  0000                     dword0	macro	val
    58                           	(getdword(val,0))
    59                           endm
    60  0000                     dword1	macro	val
    61                           	(getdword(val,4))
    62                           endm
    63  0000                     clrc	macro
    64                           	bcf	3,0
    65                           	endm
    66  0000                     clrz	macro
    67                           	bcf	3,2
    68                           	endm
    69  0000                     setc	macro
    70                           	bsf	3,0
    71                           	endm
    72  0000                     setz	macro
    73                           	bsf	3,2
    74                           	endm
    75  0000                     skipc	macro
    76                           	btfss	3,0
    77                           	endm
    78  0000                     skipz	macro
    79                           	btfss	3,2
    80                           	endm
    81  0000                     skipnc	macro
    82                           	btfsc	3,0
    83                           	endm
    84  0000                     skipnz	macro
    85                           	btfsc	3,2
    86                           	endm
    87  0000                     pushw	macro
    88                           	movwi fsr1++
    89                           	endm
    90  0000                     popw	macro
    91                           	moviw --fsr1
    92                           	endm
    93  0000                     # 54 "C:\Program Files (x86)\Microchip\xc8\v2.00\pic\include\pic16f18323.h"
    94                           INDF0 equ 00h ;# 
    95  0000                     # 74 "C:\Program Files (x86)\Microchip\xc8\v2.00\pic\include\pic16f18323.h"
    96                           INDF1 equ 01h ;# 
    97  0001                     # 94 "C:\Program Files (x86)\Microchip\xc8\v2.00\pic\include\pic16f18323.h"
    98                           PCL equ 02h ;# 
    99  0002                     # 114 "C:\Program Files (x86)\Microchip\xc8\v2.00\pic\include\pic16f18323.h"
   100                           STATUS equ 03h ;# 
   101  0003                     # 177 "C:\Program Files (x86)\Microchip\xc8\v2.00\pic\include\pic16f18323.h"
   102                           FSR0L equ 04h ;# 
   103  0004                     # 197 "C:\Program Files (x86)\Microchip\xc8\v2.00\pic\include\pic16f18323.h"
   104                           FSR0H equ 05h ;# 
   105  0005                     # 221 "C:\Program Files (x86)\Microchip\xc8\v2.00\pic\include\pic16f18323.h"
   106                           FSR1L equ 06h ;# 
   107  0006                     # 241 "C:\Program Files (x86)\Microchip\xc8\v2.00\pic\include\pic16f18323.h"
   108                           FSR1H equ 07h ;# 
   109  0007                     # 261 "C:\Program Files (x86)\Microchip\xc8\v2.00\pic\include\pic16f18323.h"
   110                           BSR equ 08h ;# 
   111  0008                     # 313 "C:\Program Files (x86)\Microchip\xc8\v2.00\pic\include\pic16f18323.h"
   112                           WREG equ 09h ;# 
   113  0009                     # 333 "C:\Program Files (x86)\Microchip\xc8\v2.00\pic\include\pic16f18323.h"
   114                           PCLATH equ 0Ah ;# 
   115  000A                     # 353 "C:\Program Files (x86)\Microchip\xc8\v2.00\pic\include\pic16f18323.h"
   116                           INTCON equ 0Bh ;# 
   117  000B                     # 386 "C:\Program Files (x86)\Microchip\xc8\v2.00\pic\include\pic16f18323.h"
   118                           PORTA equ 0Ch ;# 
   119  000C                     # 436 "C:\Program Files (x86)\Microchip\xc8\v2.00\pic\include\pic16f18323.h"
   120                           PORTC equ 0Eh ;# 
   121  000E                     # 486 "C:\Program Files (x86)\Microchip\xc8\v2.00\pic\include\pic16f18323.h"
   122                           PIR0 equ 010h ;# 
   123  0010                     # 519 "C:\Program Files (x86)\Microchip\xc8\v2.00\pic\include\pic16f18323.h"
   124                           PIR1 equ 011h ;# 
   125  0011                     # 581 "C:\Program Files (x86)\Microchip\xc8\v2.00\pic\include\pic16f18323.h"
   126                           PIR2 equ 012h ;# 
   127  0012                     # 620 "C:\Program Files (x86)\Microchip\xc8\v2.00\pic\include\pic16f18323.h"
   128                           PIR3 equ 013h ;# 
   129  0013                     # 659 "C:\Program Files (x86)\Microchip\xc8\v2.00\pic\include\pic16f18323.h"
   130                           PIR4 equ 014h ;# 
   131  0014                     # 692 "C:\Program Files (x86)\Microchip\xc8\v2.00\pic\include\pic16f18323.h"
   132                           TMR0L equ 015h ;# 
   133  0015                     # 697 "C:\Program Files (x86)\Microchip\xc8\v2.00\pic\include\pic16f18323.h"
   134                           TMR0 equ 015h ;# 
   135  0015                     # 830 "C:\Program Files (x86)\Microchip\xc8\v2.00\pic\include\pic16f18323.h"
   136                           TMR0H equ 016h ;# 
   137  0016                     # 835 "C:\Program Files (x86)\Microchip\xc8\v2.00\pic\include\pic16f18323.h"
   138                           PR0 equ 016h ;# 
   139  0016                     # 1084 "C:\Program Files (x86)\Microchip\xc8\v2.00\pic\include\pic16f18323.h"
   140                           T0CON0 equ 017h ;# 
   141  0017                     # 1149 "C:\Program Files (x86)\Microchip\xc8\v2.00\pic\include\pic16f18323.h"
   142                           T0CON1 equ 018h ;# 
   143  0018                     # 1226 "C:\Program Files (x86)\Microchip\xc8\v2.00\pic\include\pic16f18323.h"
   144                           TMR1 equ 019h ;# 
   145  0019                     # 1233 "C:\Program Files (x86)\Microchip\xc8\v2.00\pic\include\pic16f18323.h"
   146                           TMR1L equ 019h ;# 
   147  0019                     # 1253 "C:\Program Files (x86)\Microchip\xc8\v2.00\pic\include\pic16f18323.h"
   148                           TMR1H equ 01Ah ;# 
   149  001A                     # 1273 "C:\Program Files (x86)\Microchip\xc8\v2.00\pic\include\pic16f18323.h"
   150                           T1CON equ 01Bh ;# 
   151  001B                     # 1345 "C:\Program Files (x86)\Microchip\xc8\v2.00\pic\include\pic16f18323.h"
   152                           T1GCON equ 01Ch ;# 
   153  001C                     # 1415 "C:\Program Files (x86)\Microchip\xc8\v2.00\pic\include\pic16f18323.h"
   154                           TMR2 equ 01Dh ;# 
   155  001D                     # 1435 "C:\Program Files (x86)\Microchip\xc8\v2.00\pic\include\pic16f18323.h"
   156                           PR2 equ 01Eh ;# 
   157  001E                     # 1455 "C:\Program Files (x86)\Microchip\xc8\v2.00\pic\include\pic16f18323.h"
   158                           T2CON equ 01Fh ;# 
   159  001F                     # 1526 "C:\Program Files (x86)\Microchip\xc8\v2.00\pic\include\pic16f18323.h"
   160                           TRISA equ 08Ch ;# 
   161  008C                     # 1571 "C:\Program Files (x86)\Microchip\xc8\v2.00\pic\include\pic16f18323.h"
   162                           TRISC equ 08Eh ;# 
   163  008E                     # 1621 "C:\Program Files (x86)\Microchip\xc8\v2.00\pic\include\pic16f18323.h"
   164                           PIE0 equ 090h ;# 
   165  0090                     # 1654 "C:\Program Files (x86)\Microchip\xc8\v2.00\pic\include\pic16f18323.h"
   166                           PIE1 equ 091h ;# 
   167  0091                     # 1716 "C:\Program Files (x86)\Microchip\xc8\v2.00\pic\include\pic16f18323.h"
   168                           PIE2 equ 092h ;# 
   169  0092                     # 1755 "C:\Program Files (x86)\Microchip\xc8\v2.00\pic\include\pic16f18323.h"
   170                           PIE3 equ 093h ;# 
   171  0093                     # 1794 "C:\Program Files (x86)\Microchip\xc8\v2.00\pic\include\pic16f18323.h"
   172                           PIE4 equ 094h ;# 
   173  0094                     # 1827 "C:\Program Files (x86)\Microchip\xc8\v2.00\pic\include\pic16f18323.h"
   174                           WDTCON equ 097h ;# 
   175  0097                     # 1886 "C:\Program Files (x86)\Microchip\xc8\v2.00\pic\include\pic16f18323.h"
   176                           ADRES equ 09Bh ;# 
   177  009B                     # 1893 "C:\Program Files (x86)\Microchip\xc8\v2.00\pic\include\pic16f18323.h"
   178                           ADRESL equ 09Bh ;# 
   179  009B                     # 1913 "C:\Program Files (x86)\Microchip\xc8\v2.00\pic\include\pic16f18323.h"
   180                           ADRESH equ 09Ch ;# 
   181  009C                     # 1933 "C:\Program Files (x86)\Microchip\xc8\v2.00\pic\include\pic16f18323.h"
   182                           ADCON0 equ 09Dh ;# 
   183  009D                     # 2019 "C:\Program Files (x86)\Microchip\xc8\v2.00\pic\include\pic16f18323.h"
   184                           ADCON1 equ 09Eh ;# 
   185  009E                     # 2091 "C:\Program Files (x86)\Microchip\xc8\v2.00\pic\include\pic16f18323.h"
   186                           ADACT equ 09Fh ;# 
   187  009F                     # 2137 "C:\Program Files (x86)\Microchip\xc8\v2.00\pic\include\pic16f18323.h"
   188                           LATA equ 010Ch ;# 
   189  010C                     # 2182 "C:\Program Files (x86)\Microchip\xc8\v2.00\pic\include\pic16f18323.h"
   190                           LATC equ 010Eh ;# 
   191  010E                     # 2232 "C:\Program Files (x86)\Microchip\xc8\v2.00\pic\include\pic16f18323.h"
   192                           CM1CON0 equ 0111h ;# 
   193  0111                     # 2284 "C:\Program Files (x86)\Microchip\xc8\v2.00\pic\include\pic16f18323.h"
   194                           CM1CON1 equ 0112h ;# 
   195  0112                     # 2360 "C:\Program Files (x86)\Microchip\xc8\v2.00\pic\include\pic16f18323.h"
   196                           CM2CON0 equ 0113h ;# 
   197  0113                     # 2412 "C:\Program Files (x86)\Microchip\xc8\v2.00\pic\include\pic16f18323.h"
   198                           CM2CON1 equ 0114h ;# 
   199  0114                     # 2488 "C:\Program Files (x86)\Microchip\xc8\v2.00\pic\include\pic16f18323.h"
   200                           CMOUT equ 0115h ;# 
   201  0115                     # 2514 "C:\Program Files (x86)\Microchip\xc8\v2.00\pic\include\pic16f18323.h"
   202                           BORCON equ 0116h ;# 
   203  0116                     # 2541 "C:\Program Files (x86)\Microchip\xc8\v2.00\pic\include\pic16f18323.h"
   204                           FVRCON equ 0117h ;# 
   205  0117                     # 2617 "C:\Program Files (x86)\Microchip\xc8\v2.00\pic\include\pic16f18323.h"
   206                           DACCON0 equ 0118h ;# 
   207  0118                     # 2673 "C:\Program Files (x86)\Microchip\xc8\v2.00\pic\include\pic16f18323.h"
   208                           DACCON1 equ 0119h ;# 
   209  0119                     # 2725 "C:\Program Files (x86)\Microchip\xc8\v2.00\pic\include\pic16f18323.h"
   210                           ANSELA equ 018Ch ;# 
   211  018C                     # 2770 "C:\Program Files (x86)\Microchip\xc8\v2.00\pic\include\pic16f18323.h"
   212                           ANSELC equ 018Eh ;# 
   213  018E                     # 2820 "C:\Program Files (x86)\Microchip\xc8\v2.00\pic\include\pic16f18323.h"
   214                           VREGCON equ 0197h ;# 
   215  0197                     # 2841 "C:\Program Files (x86)\Microchip\xc8\v2.00\pic\include\pic16f18323.h"
   216                           RC1REG equ 0199h ;# 
   217  0199                     # 2846 "C:\Program Files (x86)\Microchip\xc8\v2.00\pic\include\pic16f18323.h"
   218                           RCREG equ 0199h ;# 
   219  0199                     # 2850 "C:\Program Files (x86)\Microchip\xc8\v2.00\pic\include\pic16f18323.h"
   220                           RCREG1 equ 0199h ;# 
   221  0199                     # 2895 "C:\Program Files (x86)\Microchip\xc8\v2.00\pic\include\pic16f18323.h"
   222                           TX1REG equ 019Ah ;# 
   223  019A                     # 2900 "C:\Program Files (x86)\Microchip\xc8\v2.00\pic\include\pic16f18323.h"
   224                           TXREG1 equ 019Ah ;# 
   225  019A                     # 2904 "C:\Program Files (x86)\Microchip\xc8\v2.00\pic\include\pic16f18323.h"
   226                           TXREG equ 019Ah ;# 
   227  019A                     # 2949 "C:\Program Files (x86)\Microchip\xc8\v2.00\pic\include\pic16f18323.h"
   228                           SP1BRG equ 019Bh ;# 
   229  019B                     # 2956 "C:\Program Files (x86)\Microchip\xc8\v2.00\pic\include\pic16f18323.h"
   230                           SP1BRGL equ 019Bh ;# 
   231  019B                     # 2961 "C:\Program Files (x86)\Microchip\xc8\v2.00\pic\include\pic16f18323.h"
   232                           SPBRG equ 019Bh ;# 
   233  019B                     # 2965 "C:\Program Files (x86)\Microchip\xc8\v2.00\pic\include\pic16f18323.h"
   234                           SPBRG1 equ 019Bh ;# 
   235  019B                     # 2969 "C:\Program Files (x86)\Microchip\xc8\v2.00\pic\include\pic16f18323.h"
   236                           SPBRGL equ 019Bh ;# 
   237  019B                     # 3026 "C:\Program Files (x86)\Microchip\xc8\v2.00\pic\include\pic16f18323.h"
   238                           SP1BRGH equ 019Ch ;# 
   239  019C                     # 3031 "C:\Program Files (x86)\Microchip\xc8\v2.00\pic\include\pic16f18323.h"
   240                           SPBRGH equ 019Ch ;# 
   241  019C                     # 3035 "C:\Program Files (x86)\Microchip\xc8\v2.00\pic\include\pic16f18323.h"
   242                           SPBRGH1 equ 019Ch ;# 
   243  019C                     # 3080 "C:\Program Files (x86)\Microchip\xc8\v2.00\pic\include\pic16f18323.h"
   244                           RC1STA equ 019Dh ;# 
   245  019D                     # 3085 "C:\Program Files (x86)\Microchip\xc8\v2.00\pic\include\pic16f18323.h"
   246                           RCSTA1 equ 019Dh ;# 
   247  019D                     # 3089 "C:\Program Files (x86)\Microchip\xc8\v2.00\pic\include\pic16f18323.h"
   248                           RCSTA equ 019Dh ;# 
   249  019D                     # 3260 "C:\Program Files (x86)\Microchip\xc8\v2.00\pic\include\pic16f18323.h"
   250                           TX1STA equ 019Eh ;# 
   251  019E                     # 3265 "C:\Program Files (x86)\Microchip\xc8\v2.00\pic\include\pic16f18323.h"
   252                           TXSTA1 equ 019Eh ;# 
   253  019E                     # 3269 "C:\Program Files (x86)\Microchip\xc8\v2.00\pic\include\pic16f18323.h"
   254                           TXSTA equ 019Eh ;# 
   255  019E                     # 3440 "C:\Program Files (x86)\Microchip\xc8\v2.00\pic\include\pic16f18323.h"
   256                           BAUD1CON equ 019Fh ;# 
   257  019F                     # 3445 "C:\Program Files (x86)\Microchip\xc8\v2.00\pic\include\pic16f18323.h"
   258                           BAUDCON1 equ 019Fh ;# 
   259  019F                     # 3449 "C:\Program Files (x86)\Microchip\xc8\v2.00\pic\include\pic16f18323.h"
   260                           BAUDCTL1 equ 019Fh ;# 
   261  019F                     # 3453 "C:\Program Files (x86)\Microchip\xc8\v2.00\pic\include\pic16f18323.h"
   262                           BAUDCON equ 019Fh ;# 
   263  019F                     # 3457 "C:\Program Files (x86)\Microchip\xc8\v2.00\pic\include\pic16f18323.h"
   264                           BAUDCTL equ 019Fh ;# 
   265  019F                     # 3686 "C:\Program Files (x86)\Microchip\xc8\v2.00\pic\include\pic16f18323.h"
   266                           WPUA equ 020Ch ;# 
   267  020C                     # 3736 "C:\Program Files (x86)\Microchip\xc8\v2.00\pic\include\pic16f18323.h"
   268                           WPUC equ 020Eh ;# 
   269  020E                     # 3786 "C:\Program Files (x86)\Microchip\xc8\v2.00\pic\include\pic16f18323.h"
   270                           SSP1BUF equ 0211h ;# 
   271  0211                     # 3791 "C:\Program Files (x86)\Microchip\xc8\v2.00\pic\include\pic16f18323.h"
   272                           SSPBUF equ 0211h ;# 
   273  0211                     # 4040 "C:\Program Files (x86)\Microchip\xc8\v2.00\pic\include\pic16f18323.h"
   274                           SSP1ADD equ 0212h ;# 
   275  0212                     # 4045 "C:\Program Files (x86)\Microchip\xc8\v2.00\pic\include\pic16f18323.h"
   276                           SSPADD equ 0212h ;# 
   277  0212                     # 4294 "C:\Program Files (x86)\Microchip\xc8\v2.00\pic\include\pic16f18323.h"
   278                           SSP1MSK equ 0213h ;# 
   279  0213                     # 4299 "C:\Program Files (x86)\Microchip\xc8\v2.00\pic\include\pic16f18323.h"
   280                           SSPMSK equ 0213h ;# 
   281  0213                     # 4548 "C:\Program Files (x86)\Microchip\xc8\v2.00\pic\include\pic16f18323.h"
   282                           SSP1STAT equ 0214h ;# 
   283  0214                     # 4553 "C:\Program Files (x86)\Microchip\xc8\v2.00\pic\include\pic16f18323.h"
   284                           SSPSTAT equ 0214h ;# 
   285  0214                     # 4670 "C:\Program Files (x86)\Microchip\xc8\v2.00\pic\include\pic16f18323.h"
   286                           SSP1CON1 equ 0215h ;# 
   287  0215                     # 4675 "C:\Program Files (x86)\Microchip\xc8\v2.00\pic\include\pic16f18323.h"
   288                           SSPCON equ 0215h ;# 
   289  0215                     # 4679 "C:\Program Files (x86)\Microchip\xc8\v2.00\pic\include\pic16f18323.h"
   290                           SSPCON1 equ 0215h ;# 
   291  0215                     # 4683 "C:\Program Files (x86)\Microchip\xc8\v2.00\pic\include\pic16f18323.h"
   292                           SSP1CON equ 0215h ;# 
   293  0215                     # 4940 "C:\Program Files (x86)\Microchip\xc8\v2.00\pic\include\pic16f18323.h"
   294                           SSP1CON2 equ 0216h ;# 
   295  0216                     # 4945 "C:\Program Files (x86)\Microchip\xc8\v2.00\pic\include\pic16f18323.h"
   296                           SSPCON2 equ 0216h ;# 
   297  0216                     # 5062 "C:\Program Files (x86)\Microchip\xc8\v2.00\pic\include\pic16f18323.h"
   298                           SSP1CON3 equ 0217h ;# 
   299  0217                     # 5067 "C:\Program Files (x86)\Microchip\xc8\v2.00\pic\include\pic16f18323.h"
   300                           SSPCON3 equ 0217h ;# 
   301  0217                     # 5184 "C:\Program Files (x86)\Microchip\xc8\v2.00\pic\include\pic16f18323.h"
   302                           ODCONA equ 028Ch ;# 
   303  028C                     # 5229 "C:\Program Files (x86)\Microchip\xc8\v2.00\pic\include\pic16f18323.h"
   304                           ODCONC equ 028Eh ;# 
   305  028E                     # 5279 "C:\Program Files (x86)\Microchip\xc8\v2.00\pic\include\pic16f18323.h"
   306                           CCPR1 equ 0291h ;# 
   307  0291                     # 5286 "C:\Program Files (x86)\Microchip\xc8\v2.00\pic\include\pic16f18323.h"
   308                           CCPR1L equ 0291h ;# 
   309  0291                     # 5306 "C:\Program Files (x86)\Microchip\xc8\v2.00\pic\include\pic16f18323.h"
   310                           CCPR1H equ 0292h ;# 
   311  0292                     # 5326 "C:\Program Files (x86)\Microchip\xc8\v2.00\pic\include\pic16f18323.h"
   312                           CCP1CON equ 0293h ;# 
   313  0293                     # 5391 "C:\Program Files (x86)\Microchip\xc8\v2.00\pic\include\pic16f18323.h"
   314                           CCP1CAP equ 0294h ;# 
   315  0294                     # 5431 "C:\Program Files (x86)\Microchip\xc8\v2.00\pic\include\pic16f18323.h"
   316                           CCPR2 equ 0295h ;# 
   317  0295                     # 5438 "C:\Program Files (x86)\Microchip\xc8\v2.00\pic\include\pic16f18323.h"
   318                           CCPR2L equ 0295h ;# 
   319  0295                     # 5458 "C:\Program Files (x86)\Microchip\xc8\v2.00\pic\include\pic16f18323.h"
   320                           CCPR2H equ 0296h ;# 
   321  0296                     # 5478 "C:\Program Files (x86)\Microchip\xc8\v2.00\pic\include\pic16f18323.h"
   322                           CCP2CON equ 0297h ;# 
   323  0297                     # 5543 "C:\Program Files (x86)\Microchip\xc8\v2.00\pic\include\pic16f18323.h"
   324                           CCP2CAP equ 0298h ;# 
   325  0298                     # 5583 "C:\Program Files (x86)\Microchip\xc8\v2.00\pic\include\pic16f18323.h"
   326                           SLRCONA equ 030Ch ;# 
   327  030C                     # 5628 "C:\Program Files (x86)\Microchip\xc8\v2.00\pic\include\pic16f18323.h"
   328                           SLRCONC equ 030Eh ;# 
   329  030E                     # 5678 "C:\Program Files (x86)\Microchip\xc8\v2.00\pic\include\pic16f18323.h"
   330                           INLVLA equ 038Ch ;# 
   331  038C                     # 5728 "C:\Program Files (x86)\Microchip\xc8\v2.00\pic\include\pic16f18323.h"
   332                           INLVLC equ 038Eh ;# 
   333  038E                     # 5778 "C:\Program Files (x86)\Microchip\xc8\v2.00\pic\include\pic16f18323.h"
   334                           IOCAP equ 0391h ;# 
   335  0391                     # 5828 "C:\Program Files (x86)\Microchip\xc8\v2.00\pic\include\pic16f18323.h"
   336                           IOCAN equ 0392h ;# 
   337  0392                     # 5878 "C:\Program Files (x86)\Microchip\xc8\v2.00\pic\include\pic16f18323.h"
   338                           IOCAF equ 0393h ;# 
   339  0393                     # 5928 "C:\Program Files (x86)\Microchip\xc8\v2.00\pic\include\pic16f18323.h"
   340                           IOCCP equ 0397h ;# 
   341  0397                     # 5978 "C:\Program Files (x86)\Microchip\xc8\v2.00\pic\include\pic16f18323.h"
   342                           IOCCN equ 0398h ;# 
   343  0398                     # 6028 "C:\Program Files (x86)\Microchip\xc8\v2.00\pic\include\pic16f18323.h"
   344                           IOCCF equ 0399h ;# 
   345  0399                     # 6078 "C:\Program Files (x86)\Microchip\xc8\v2.00\pic\include\pic16f18323.h"
   346                           CLKRCON equ 039Ah ;# 
   347  039A                     # 6143 "C:\Program Files (x86)\Microchip\xc8\v2.00\pic\include\pic16f18323.h"
   348                           MDCON equ 039Ch ;# 
   349  039C                     # 6183 "C:\Program Files (x86)\Microchip\xc8\v2.00\pic\include\pic16f18323.h"
   350                           MDSRC equ 039Dh ;# 
   351  039D                     # 6229 "C:\Program Files (x86)\Microchip\xc8\v2.00\pic\include\pic16f18323.h"
   352                           MDCARH equ 039Eh ;# 
   353  039E                     # 6288 "C:\Program Files (x86)\Microchip\xc8\v2.00\pic\include\pic16f18323.h"
   354                           MDCARL equ 039Fh ;# 
   355  039F                     # 6349 "C:\Program Files (x86)\Microchip\xc8\v2.00\pic\include\pic16f18323.h"
   356                           NCO1ACC equ 0498h ;# 
   357  0498                     # 6356 "C:\Program Files (x86)\Microchip\xc8\v2.00\pic\include\pic16f18323.h"
   358                           NCO1ACCL equ 0498h ;# 
   359  0498                     # 6376 "C:\Program Files (x86)\Microchip\xc8\v2.00\pic\include\pic16f18323.h"
   360                           NCO1ACCH equ 0499h ;# 
   361  0499                     # 6396 "C:\Program Files (x86)\Microchip\xc8\v2.00\pic\include\pic16f18323.h"
   362                           NCO1ACCU equ 049Ah ;# 
   363  049A                     # 6418 "C:\Program Files (x86)\Microchip\xc8\v2.00\pic\include\pic16f18323.h"
   364                           NCO1INC equ 049Bh ;# 
   365  049B                     # 6425 "C:\Program Files (x86)\Microchip\xc8\v2.00\pic\include\pic16f18323.h"
   366                           NCO1INCL equ 049Bh ;# 
   367  049B                     # 6445 "C:\Program Files (x86)\Microchip\xc8\v2.00\pic\include\pic16f18323.h"
   368                           NCO1INCH equ 049Ch ;# 
   369  049C                     # 6465 "C:\Program Files (x86)\Microchip\xc8\v2.00\pic\include\pic16f18323.h"
   370                           NCO1INCU equ 049Dh ;# 
   371  049D                     # 6485 "C:\Program Files (x86)\Microchip\xc8\v2.00\pic\include\pic16f18323.h"
   372                           NCO1CON equ 049Eh ;# 
   373  049E                     # 6525 "C:\Program Files (x86)\Microchip\xc8\v2.00\pic\include\pic16f18323.h"
   374                           NCO1CLK equ 049Fh ;# 
   375  049F                     # 6552 "C:\Program Files (x86)\Microchip\xc8\v2.00\pic\include\pic16f18323.h"
   376                           PWM5DCL equ 0617h ;# 
   377  0617                     # 6588 "C:\Program Files (x86)\Microchip\xc8\v2.00\pic\include\pic16f18323.h"
   378                           PWM5DCH equ 0618h ;# 
   379  0618                     # 6658 "C:\Program Files (x86)\Microchip\xc8\v2.00\pic\include\pic16f18323.h"
   380                           PWM5CON equ 0619h ;# 
   381  0619                     # 6663 "C:\Program Files (x86)\Microchip\xc8\v2.00\pic\include\pic16f18323.h"
   382                           PWM5CON0 equ 0619h ;# 
   383  0619                     # 6724 "C:\Program Files (x86)\Microchip\xc8\v2.00\pic\include\pic16f18323.h"
   384                           PWM6DCL equ 061Ah ;# 
   385  061A                     # 6760 "C:\Program Files (x86)\Microchip\xc8\v2.00\pic\include\pic16f18323.h"
   386                           PWM6DCH equ 061Bh ;# 
   387  061B                     # 6830 "C:\Program Files (x86)\Microchip\xc8\v2.00\pic\include\pic16f18323.h"
   388                           PWM6CON equ 061Ch ;# 
   389  061C                     # 6835 "C:\Program Files (x86)\Microchip\xc8\v2.00\pic\include\pic16f18323.h"
   390                           PWM6CON0 equ 061Ch ;# 
   391  061C                     # 6896 "C:\Program Files (x86)\Microchip\xc8\v2.00\pic\include\pic16f18323.h"
   392                           CWG1CLKCON equ 0691h ;# 
   393  0691                     # 6924 "C:\Program Files (x86)\Microchip\xc8\v2.00\pic\include\pic16f18323.h"
   394                           CWG1DAT equ 0692h ;# 
   395  0692                     # 6970 "C:\Program Files (x86)\Microchip\xc8\v2.00\pic\include\pic16f18323.h"
   396                           CWG1DBR equ 0693h ;# 
   397  0693                     # 7074 "C:\Program Files (x86)\Microchip\xc8\v2.00\pic\include\pic16f18323.h"
   398                           CWG1DBF equ 0694h ;# 
   399  0694                     # 7178 "C:\Program Files (x86)\Microchip\xc8\v2.00\pic\include\pic16f18323.h"
   400                           CWG1CON0 equ 0695h ;# 
   401  0695                     # 7279 "C:\Program Files (x86)\Microchip\xc8\v2.00\pic\include\pic16f18323.h"
   402                           CWG1CON1 equ 0696h ;# 
   403  0696                     # 7357 "C:\Program Files (x86)\Microchip\xc8\v2.00\pic\include\pic16f18323.h"
   404                           CWG1AS0 equ 0697h ;# 
   405  0697                     # 7477 "C:\Program Files (x86)\Microchip\xc8\v2.00\pic\include\pic16f18323.h"
   406                           CWG1AS1 equ 0698h ;# 
   407  0698                     # 7515 "C:\Program Files (x86)\Microchip\xc8\v2.00\pic\include\pic16f18323.h"
   408                           CWG1STR equ 0699h ;# 
   409  0699                     # 7627 "C:\Program Files (x86)\Microchip\xc8\v2.00\pic\include\pic16f18323.h"
   410                           NVMADR equ 0891h ;# 
   411  0891                     # 7632 "C:\Program Files (x86)\Microchip\xc8\v2.00\pic\include\pic16f18323.h"
   412                           EEADR equ 0891h ;# 
   413  0891                     # 7636 "C:\Program Files (x86)\Microchip\xc8\v2.00\pic\include\pic16f18323.h"
   414                           PMADR equ 0891h ;# 
   415  0891                     # 7643 "C:\Program Files (x86)\Microchip\xc8\v2.00\pic\include\pic16f18323.h"
   416                           NVMADRL equ 0891h ;# 
   417  0891                     # 7648 "C:\Program Files (x86)\Microchip\xc8\v2.00\pic\include\pic16f18323.h"
   418                           EEADRL equ 0891h ;# 
   419  0891                     # 7652 "C:\Program Files (x86)\Microchip\xc8\v2.00\pic\include\pic16f18323.h"
   420                           PMADRL equ 0891h ;# 
   421  0891                     # 8045 "C:\Program Files (x86)\Microchip\xc8\v2.00\pic\include\pic16f18323.h"
   422                           NVMADRH equ 0892h ;# 
   423  0892                     # 8050 "C:\Program Files (x86)\Microchip\xc8\v2.00\pic\include\pic16f18323.h"
   424                           EEADRH equ 0892h ;# 
   425  0892                     # 8054 "C:\Program Files (x86)\Microchip\xc8\v2.00\pic\include\pic16f18323.h"
   426                           PMADRH equ 0892h ;# 
   427  0892                     # 8411 "C:\Program Files (x86)\Microchip\xc8\v2.00\pic\include\pic16f18323.h"
   428                           NVMDAT equ 0893h ;# 
   429  0893                     # 8416 "C:\Program Files (x86)\Microchip\xc8\v2.00\pic\include\pic16f18323.h"
   430                           EEDAT equ 0893h ;# 
   431  0893                     # 8420 "C:\Program Files (x86)\Microchip\xc8\v2.00\pic\include\pic16f18323.h"
   432                           PMDAT equ 0893h ;# 
   433  0893                     # 8427 "C:\Program Files (x86)\Microchip\xc8\v2.00\pic\include\pic16f18323.h"
   434                           NVMDATL equ 0893h ;# 
   435  0893                     # 8432 "C:\Program Files (x86)\Microchip\xc8\v2.00\pic\include\pic16f18323.h"
   436                           EEDATL equ 0893h ;# 
   437  0893                     # 8436 "C:\Program Files (x86)\Microchip\xc8\v2.00\pic\include\pic16f18323.h"
   438                           PMDATL equ 0893h ;# 
   439  0893                     # 8679 "C:\Program Files (x86)\Microchip\xc8\v2.00\pic\include\pic16f18323.h"
   440                           NVMDATH equ 0894h ;# 
   441  0894                     # 8684 "C:\Program Files (x86)\Microchip\xc8\v2.00\pic\include\pic16f18323.h"
   442                           EEDATH equ 0894h ;# 
   443  0894                     # 8688 "C:\Program Files (x86)\Microchip\xc8\v2.00\pic\include\pic16f18323.h"
   444                           PMDATH equ 0894h ;# 
   445  0894                     # 8895 "C:\Program Files (x86)\Microchip\xc8\v2.00\pic\include\pic16f18323.h"
   446                           NVMCON1 equ 0895h ;# 
   447  0895                     # 8900 "C:\Program Files (x86)\Microchip\xc8\v2.00\pic\include\pic16f18323.h"
   448                           EECON1 equ 0895h ;# 
   449  0895                     # 8904 "C:\Program Files (x86)\Microchip\xc8\v2.00\pic\include\pic16f18323.h"
   450                           PMCON1 equ 0895h ;# 
   451  0895                     # 9084 "C:\Program Files (x86)\Microchip\xc8\v2.00\pic\include\pic16f18323.h"
   452                           NVMCON2 equ 0896h ;# 
   453  0896                     # 9089 "C:\Program Files (x86)\Microchip\xc8\v2.00\pic\include\pic16f18323.h"
   454                           EECON2 equ 0896h ;# 
   455  0896                     # 9093 "C:\Program Files (x86)\Microchip\xc8\v2.00\pic\include\pic16f18323.h"
   456                           PMCON2 equ 0896h ;# 
   457  0896                     # 9186 "C:\Program Files (x86)\Microchip\xc8\v2.00\pic\include\pic16f18323.h"
   458                           PCON0 equ 089Bh ;# 
   459  089B                     # 9243 "C:\Program Files (x86)\Microchip\xc8\v2.00\pic\include\pic16f18323.h"
   460                           PMD0 equ 0911h ;# 
   461  0911                     # 9288 "C:\Program Files (x86)\Microchip\xc8\v2.00\pic\include\pic16f18323.h"
   462                           PMD1 equ 0912h ;# 
   463  0912                     # 9327 "C:\Program Files (x86)\Microchip\xc8\v2.00\pic\include\pic16f18323.h"
   464                           PMD2 equ 0913h ;# 
   465  0913                     # 9367 "C:\Program Files (x86)\Microchip\xc8\v2.00\pic\include\pic16f18323.h"
   466                           PMD3 equ 0914h ;# 
   467  0914                     # 9412 "C:\Program Files (x86)\Microchip\xc8\v2.00\pic\include\pic16f18323.h"
   468                           PMD4 equ 0915h ;# 
   469  0915                     # 9440 "C:\Program Files (x86)\Microchip\xc8\v2.00\pic\include\pic16f18323.h"
   470                           PMD5 equ 0916h ;# 
   471  0916                     # 9472 "C:\Program Files (x86)\Microchip\xc8\v2.00\pic\include\pic16f18323.h"
   472                           CPUDOZE equ 0918h ;# 
   473  0918                     # 9537 "C:\Program Files (x86)\Microchip\xc8\v2.00\pic\include\pic16f18323.h"
   474                           OSCCON1 equ 0919h ;# 
   475  0919                     # 9607 "C:\Program Files (x86)\Microchip\xc8\v2.00\pic\include\pic16f18323.h"
   476                           OSCCON2 equ 091Ah ;# 
   477  091A                     # 9677 "C:\Program Files (x86)\Microchip\xc8\v2.00\pic\include\pic16f18323.h"
   478                           OSCCON3 equ 091Bh ;# 
   479  091B                     # 9722 "C:\Program Files (x86)\Microchip\xc8\v2.00\pic\include\pic16f18323.h"
   480                           OSCSTAT1 equ 091Ch ;# 
   481  091C                     # 9774 "C:\Program Files (x86)\Microchip\xc8\v2.00\pic\include\pic16f18323.h"
   482                           OSCEN equ 091Dh ;# 
   483  091D                     # 9820 "C:\Program Files (x86)\Microchip\xc8\v2.00\pic\include\pic16f18323.h"
   484                           OSCTUNE equ 091Eh ;# 
   485  091E                     # 9878 "C:\Program Files (x86)\Microchip\xc8\v2.00\pic\include\pic16f18323.h"
   486                           OSCFRQ equ 091Fh ;# 
   487  091F                     # 9924 "C:\Program Files (x86)\Microchip\xc8\v2.00\pic\include\pic16f18323.h"
   488                           PPSLOCK equ 0E0Fh ;# 
   489  0E0F                     # 9944 "C:\Program Files (x86)\Microchip\xc8\v2.00\pic\include\pic16f18323.h"
   490                           INTPPS equ 0E10h ;# 
   491  0E10                     # 9996 "C:\Program Files (x86)\Microchip\xc8\v2.00\pic\include\pic16f18323.h"
   492                           T0CKIPPS equ 0E11h ;# 
   493  0E11                     # 10048 "C:\Program Files (x86)\Microchip\xc8\v2.00\pic\include\pic16f18323.h"
   494                           T1CKIPPS equ 0E12h ;# 
   495  0E12                     # 10100 "C:\Program Files (x86)\Microchip\xc8\v2.00\pic\include\pic16f18323.h"
   496                           T1GPPS equ 0E13h ;# 
   497  0E13                     # 10152 "C:\Program Files (x86)\Microchip\xc8\v2.00\pic\include\pic16f18323.h"
   498                           CCP1PPS equ 0E14h ;# 
   499  0E14                     # 10204 "C:\Program Files (x86)\Microchip\xc8\v2.00\pic\include\pic16f18323.h"
   500                           CCP2PPS equ 0E15h ;# 
   501  0E15                     # 10256 "C:\Program Files (x86)\Microchip\xc8\v2.00\pic\include\pic16f18323.h"
   502                           CWG1PPS equ 0E18h ;# 
   503  0E18                     # 10308 "C:\Program Files (x86)\Microchip\xc8\v2.00\pic\include\pic16f18323.h"
   504                           MDCIN1PPS equ 0E1Ah ;# 
   505  0E1A                     # 10360 "C:\Program Files (x86)\Microchip\xc8\v2.00\pic\include\pic16f18323.h"
   506                           MDCIN2PPS equ 0E1Bh ;# 
   507  0E1B                     # 10412 "C:\Program Files (x86)\Microchip\xc8\v2.00\pic\include\pic16f18323.h"
   508                           MDMINPPS equ 0E1Ch ;# 
   509  0E1C                     # 10464 "C:\Program Files (x86)\Microchip\xc8\v2.00\pic\include\pic16f18323.h"
   510                           SSP1CLKPPS equ 0E20h ;# 
   511  0E20                     # 10516 "C:\Program Files (x86)\Microchip\xc8\v2.00\pic\include\pic16f18323.h"
   512                           SSP1DATPPS equ 0E21h ;# 
   513  0E21                     # 10568 "C:\Program Files (x86)\Microchip\xc8\v2.00\pic\include\pic16f18323.h"
   514                           SSP1SSPPS equ 0E22h ;# 
   515  0E22                     # 10620 "C:\Program Files (x86)\Microchip\xc8\v2.00\pic\include\pic16f18323.h"
   516                           RXPPS equ 0E24h ;# 
   517  0E24                     # 10672 "C:\Program Files (x86)\Microchip\xc8\v2.00\pic\include\pic16f18323.h"
   518                           TXPPS equ 0E25h ;# 
   519  0E25                     # 10724 "C:\Program Files (x86)\Microchip\xc8\v2.00\pic\include\pic16f18323.h"
   520                           CLCIN0PPS equ 0E28h ;# 
   521  0E28                     # 10776 "C:\Program Files (x86)\Microchip\xc8\v2.00\pic\include\pic16f18323.h"
   522                           CLCIN1PPS equ 0E29h ;# 
   523  0E29                     # 10828 "C:\Program Files (x86)\Microchip\xc8\v2.00\pic\include\pic16f18323.h"
   524                           CLCIN2PPS equ 0E2Ah ;# 
   525  0E2A                     # 10880 "C:\Program Files (x86)\Microchip\xc8\v2.00\pic\include\pic16f18323.h"
   526                           CLCIN3PPS equ 0E2Bh ;# 
   527  0E2B                     # 10932 "C:\Program Files (x86)\Microchip\xc8\v2.00\pic\include\pic16f18323.h"
   528                           RA0PPS equ 0E90h ;# 
   529  0E90                     # 10984 "C:\Program Files (x86)\Microchip\xc8\v2.00\pic\include\pic16f18323.h"
   530                           RA1PPS equ 0E91h ;# 
   531  0E91                     # 11036 "C:\Program Files (x86)\Microchip\xc8\v2.00\pic\include\pic16f18323.h"
   532                           RA2PPS equ 0E92h ;# 
   533  0E92                     # 11088 "C:\Program Files (x86)\Microchip\xc8\v2.00\pic\include\pic16f18323.h"
   534                           RA4PPS equ 0E94h ;# 
   535  0E94                     # 11140 "C:\Program Files (x86)\Microchip\xc8\v2.00\pic\include\pic16f18323.h"
   536                           RA5PPS equ 0E95h ;# 
   537  0E95                     # 11192 "C:\Program Files (x86)\Microchip\xc8\v2.00\pic\include\pic16f18323.h"
   538                           RC0PPS equ 0EA0h ;# 
   539  0EA0                     # 11244 "C:\Program Files (x86)\Microchip\xc8\v2.00\pic\include\pic16f18323.h"
   540                           RC1PPS equ 0EA1h ;# 
   541  0EA1                     # 11296 "C:\Program Files (x86)\Microchip\xc8\v2.00\pic\include\pic16f18323.h"
   542                           RC2PPS equ 0EA2h ;# 
   543  0EA2                     # 11348 "C:\Program Files (x86)\Microchip\xc8\v2.00\pic\include\pic16f18323.h"
   544                           RC3PPS equ 0EA3h ;# 
   545  0EA3                     # 11400 "C:\Program Files (x86)\Microchip\xc8\v2.00\pic\include\pic16f18323.h"
   546                           RC4PPS equ 0EA4h ;# 
   547  0EA4                     # 11452 "C:\Program Files (x86)\Microchip\xc8\v2.00\pic\include\pic16f18323.h"
   548                           RC5PPS equ 0EA5h ;# 
   549  0EA5                     # 11504 "C:\Program Files (x86)\Microchip\xc8\v2.00\pic\include\pic16f18323.h"
   550                           CLCDATA equ 0F0Fh ;# 
   551  0F0F                     # 11530 "C:\Program Files (x86)\Microchip\xc8\v2.00\pic\include\pic16f18323.h"
   552                           CLC1CON equ 0F10h ;# 
   553  0F10                     # 11648 "C:\Program Files (x86)\Microchip\xc8\v2.00\pic\include\pic16f18323.h"
   554                           CLC1POL equ 0F11h ;# 
   555  0F11                     # 11726 "C:\Program Files (x86)\Microchip\xc8\v2.00\pic\include\pic16f18323.h"
   556                           CLC1SEL0 equ 0F12h ;# 
   557  0F12                     # 11818 "C:\Program Files (x86)\Microchip\xc8\v2.00\pic\include\pic16f18323.h"
   558                           CLC1SEL1 equ 0F13h ;# 
   559  0F13                     # 11910 "C:\Program Files (x86)\Microchip\xc8\v2.00\pic\include\pic16f18323.h"
   560                           CLC1SEL2 equ 0F14h ;# 
   561  0F14                     # 12002 "C:\Program Files (x86)\Microchip\xc8\v2.00\pic\include\pic16f18323.h"
   562                           CLC1SEL3 equ 0F15h ;# 
   563  0F15                     # 12094 "C:\Program Files (x86)\Microchip\xc8\v2.00\pic\include\pic16f18323.h"
   564                           CLC1GLS0 equ 0F16h ;# 
   565  0F16                     # 12206 "C:\Program Files (x86)\Microchip\xc8\v2.00\pic\include\pic16f18323.h"
   566                           CLC1GLS1 equ 0F17h ;# 
   567  0F17                     # 12318 "C:\Program Files (x86)\Microchip\xc8\v2.00\pic\include\pic16f18323.h"
   568                           CLC1GLS2 equ 0F18h ;# 
   569  0F18                     # 12430 "C:\Program Files (x86)\Microchip\xc8\v2.00\pic\include\pic16f18323.h"
   570                           CLC1GLS3 equ 0F19h ;# 
   571  0F19                     # 12542 "C:\Program Files (x86)\Microchip\xc8\v2.00\pic\include\pic16f18323.h"
   572                           CLC2CON equ 0F1Ah ;# 
   573  0F1A                     # 12660 "C:\Program Files (x86)\Microchip\xc8\v2.00\pic\include\pic16f18323.h"
   574                           CLC2POL equ 0F1Bh ;# 
   575  0F1B                     # 12738 "C:\Program Files (x86)\Microchip\xc8\v2.00\pic\include\pic16f18323.h"
   576                           CLC2SEL0 equ 0F1Ch ;# 
   577  0F1C                     # 12830 "C:\Program Files (x86)\Microchip\xc8\v2.00\pic\include\pic16f18323.h"
   578                           CLC2SEL1 equ 0F1Dh ;# 
   579  0F1D                     # 12922 "C:\Program Files (x86)\Microchip\xc8\v2.00\pic\include\pic16f18323.h"
   580                           CLC2SEL2 equ 0F1Eh ;# 
   581  0F1E                     # 13014 "C:\Program Files (x86)\Microchip\xc8\v2.00\pic\include\pic16f18323.h"
   582                           CLC2SEL3 equ 0F1Fh ;# 
   583  0F1F                     # 13106 "C:\Program Files (x86)\Microchip\xc8\v2.00\pic\include\pic16f18323.h"
   584                           CLC2GLS0 equ 0F20h ;# 
   585  0F20                     # 13218 "C:\Program Files (x86)\Microchip\xc8\v2.00\pic\include\pic16f18323.h"
   586                           CLC2GLS1 equ 0F21h ;# 
   587  0F21                     # 13330 "C:\Program Files (x86)\Microchip\xc8\v2.00\pic\include\pic16f18323.h"
   588                           CLC2GLS2 equ 0F22h ;# 
   589  0F22                     # 13442 "C:\Program Files (x86)\Microchip\xc8\v2.00\pic\include\pic16f18323.h"
   590                           CLC2GLS3 equ 0F23h ;# 
   591  0F23                     # 13554 "C:\Program Files (x86)\Microchip\xc8\v2.00\pic\include\pic16f18323.h"
   592                           STATUS_SHAD equ 0FE4h ;# 
   593  0FE4                     # 13586 "C:\Program Files (x86)\Microchip\xc8\v2.00\pic\include\pic16f18323.h"
   594                           WREG_SHAD equ 0FE5h ;# 
   595  0FE5                     # 13606 "C:\Program Files (x86)\Microchip\xc8\v2.00\pic\include\pic16f18323.h"
   596                           BSR_SHAD equ 0FE6h ;# 
   597  0FE6                     # 13626 "C:\Program Files (x86)\Microchip\xc8\v2.00\pic\include\pic16f18323.h"
   598                           PCLATH_SHAD equ 0FE7h ;# 
   599  0FE7                     # 13646 "C:\Program Files (x86)\Microchip\xc8\v2.00\pic\include\pic16f18323.h"
   600                           FSR0L_SHAD equ 0FE8h ;# 
   601  0FE8                     # 13666 "C:\Program Files (x86)\Microchip\xc8\v2.00\pic\include\pic16f18323.h"
   602                           FSR0H_SHAD equ 0FE9h ;# 
   603  0FE9                     # 13686 "C:\Program Files (x86)\Microchip\xc8\v2.00\pic\include\pic16f18323.h"
   604                           FSR1L_SHAD equ 0FEAh ;# 
   605  0FEA                     # 13706 "C:\Program Files (x86)\Microchip\xc8\v2.00\pic\include\pic16f18323.h"
   606                           FSR1H_SHAD equ 0FEBh ;# 
   607  0FEB                     # 13726 "C:\Program Files (x86)\Microchip\xc8\v2.00\pic\include\pic16f18323.h"
   608                           STKPTR equ 0FEDh ;# 
   609  0FED                     # 13746 "C:\Program Files (x86)\Microchip\xc8\v2.00\pic\include\pic16f18323.h"
   610                           TOSL equ 0FEEh ;# 
   611  0FEE                     # 13766 "C:\Program Files (x86)\Microchip\xc8\v2.00\pic\include\pic16f18323.h"
   612                           TOSH equ 0FEFh ;# 
   613  0FEF                     # 54 "C:\Program Files (x86)\Microchip\xc8\v2.00\pic\include\pic16f18323.h"
   614                           INDF0 equ 00h ;# 
   615  0000                     # 74 "C:\Program Files (x86)\Microchip\xc8\v2.00\pic\include\pic16f18323.h"
   616                           INDF1 equ 01h ;# 
   617  0001                     # 94 "C:\Program Files (x86)\Microchip\xc8\v2.00\pic\include\pic16f18323.h"
   618                           PCL equ 02h ;# 
   619  0002                     # 114 "C:\Program Files (x86)\Microchip\xc8\v2.00\pic\include\pic16f18323.h"
   620                           STATUS equ 03h ;# 
   621  0003                     # 177 "C:\Program Files (x86)\Microchip\xc8\v2.00\pic\include\pic16f18323.h"
   622                           FSR0L equ 04h ;# 
   623  0004                     # 197 "C:\Program Files (x86)\Microchip\xc8\v2.00\pic\include\pic16f18323.h"
   624                           FSR0H equ 05h ;# 
   625  0005                     # 221 "C:\Program Files (x86)\Microchip\xc8\v2.00\pic\include\pic16f18323.h"
   626                           FSR1L equ 06h ;# 
   627  0006                     # 241 "C:\Program Files (x86)\Microchip\xc8\v2.00\pic\include\pic16f18323.h"
   628                           FSR1H equ 07h ;# 
   629  0007                     # 261 "C:\Program Files (x86)\Microchip\xc8\v2.00\pic\include\pic16f18323.h"
   630                           BSR equ 08h ;# 
   631  0008                     # 313 "C:\Program Files (x86)\Microchip\xc8\v2.00\pic\include\pic16f18323.h"
   632                           WREG equ 09h ;# 
   633  0009                     # 333 "C:\Program Files (x86)\Microchip\xc8\v2.00\pic\include\pic16f18323.h"
   634                           PCLATH equ 0Ah ;# 
   635  000A                     # 353 "C:\Program Files (x86)\Microchip\xc8\v2.00\pic\include\pic16f18323.h"
   636                           INTCON equ 0Bh ;# 
   637  000B                     # 386 "C:\Program Files (x86)\Microchip\xc8\v2.00\pic\include\pic16f18323.h"
   638                           PORTA equ 0Ch ;# 
   639  000C                     # 436 "C:\Program Files (x86)\Microchip\xc8\v2.00\pic\include\pic16f18323.h"
   640                           PORTC equ 0Eh ;# 
   641  000E                     # 486 "C:\Program Files (x86)\Microchip\xc8\v2.00\pic\include\pic16f18323.h"
   642                           PIR0 equ 010h ;# 
   643  0010                     # 519 "C:\Program Files (x86)\Microchip\xc8\v2.00\pic\include\pic16f18323.h"
   644                           PIR1 equ 011h ;# 
   645  0011                     # 581 "C:\Program Files (x86)\Microchip\xc8\v2.00\pic\include\pic16f18323.h"
   646                           PIR2 equ 012h ;# 
   647  0012                     # 620 "C:\Program Files (x86)\Microchip\xc8\v2.00\pic\include\pic16f18323.h"
   648                           PIR3 equ 013h ;# 
   649  0013                     # 659 "C:\Program Files (x86)\Microchip\xc8\v2.00\pic\include\pic16f18323.h"
   650                           PIR4 equ 014h ;# 
   651  0014                     # 692 "C:\Program Files (x86)\Microchip\xc8\v2.00\pic\include\pic16f18323.h"
   652                           TMR0L equ 015h ;# 
   653  0015                     # 697 "C:\Program Files (x86)\Microchip\xc8\v2.00\pic\include\pic16f18323.h"
   654                           TMR0 equ 015h ;# 
   655  0015                     # 830 "C:\Program Files (x86)\Microchip\xc8\v2.00\pic\include\pic16f18323.h"
   656                           TMR0H equ 016h ;# 
   657  0016                     # 835 "C:\Program Files (x86)\Microchip\xc8\v2.00\pic\include\pic16f18323.h"
   658                           PR0 equ 016h ;# 
   659  0016                     # 1084 "C:\Program Files (x86)\Microchip\xc8\v2.00\pic\include\pic16f18323.h"
   660                           T0CON0 equ 017h ;# 
   661  0017                     # 1149 "C:\Program Files (x86)\Microchip\xc8\v2.00\pic\include\pic16f18323.h"
   662                           T0CON1 equ 018h ;# 
   663  0018                     # 1226 "C:\Program Files (x86)\Microchip\xc8\v2.00\pic\include\pic16f18323.h"
   664                           TMR1 equ 019h ;# 
   665  0019                     # 1233 "C:\Program Files (x86)\Microchip\xc8\v2.00\pic\include\pic16f18323.h"
   666                           TMR1L equ 019h ;# 
   667  0019                     # 1253 "C:\Program Files (x86)\Microchip\xc8\v2.00\pic\include\pic16f18323.h"
   668                           TMR1H equ 01Ah ;# 
   669  001A                     # 1273 "C:\Program Files (x86)\Microchip\xc8\v2.00\pic\include\pic16f18323.h"
   670                           T1CON equ 01Bh ;# 
   671  001B                     # 1345 "C:\Program Files (x86)\Microchip\xc8\v2.00\pic\include\pic16f18323.h"
   672                           T1GCON equ 01Ch ;# 
   673  001C                     # 1415 "C:\Program Files (x86)\Microchip\xc8\v2.00\pic\include\pic16f18323.h"
   674                           TMR2 equ 01Dh ;# 
   675  001D                     # 1435 "C:\Program Files (x86)\Microchip\xc8\v2.00\pic\include\pic16f18323.h"
   676                           PR2 equ 01Eh ;# 
   677  001E                     # 1455 "C:\Program Files (x86)\Microchip\xc8\v2.00\pic\include\pic16f18323.h"
   678                           T2CON equ 01Fh ;# 
   679  001F                     # 1526 "C:\Program Files (x86)\Microchip\xc8\v2.00\pic\include\pic16f18323.h"
   680                           TRISA equ 08Ch ;# 
   681  008C                     # 1571 "C:\Program Files (x86)\Microchip\xc8\v2.00\pic\include\pic16f18323.h"
   682                           TRISC equ 08Eh ;# 
   683  008E                     # 1621 "C:\Program Files (x86)\Microchip\xc8\v2.00\pic\include\pic16f18323.h"
   684                           PIE0 equ 090h ;# 
   685  0090                     # 1654 "C:\Program Files (x86)\Microchip\xc8\v2.00\pic\include\pic16f18323.h"
   686                           PIE1 equ 091h ;# 
   687  0091                     # 1716 "C:\Program Files (x86)\Microchip\xc8\v2.00\pic\include\pic16f18323.h"
   688                           PIE2 equ 092h ;# 
   689  0092                     # 1755 "C:\Program Files (x86)\Microchip\xc8\v2.00\pic\include\pic16f18323.h"
   690                           PIE3 equ 093h ;# 
   691  0093                     # 1794 "C:\Program Files (x86)\Microchip\xc8\v2.00\pic\include\pic16f18323.h"
   692                           PIE4 equ 094h ;# 
   693  0094                     # 1827 "C:\Program Files (x86)\Microchip\xc8\v2.00\pic\include\pic16f18323.h"
   694                           WDTCON equ 097h ;# 
   695  0097                     # 1886 "C:\Program Files (x86)\Microchip\xc8\v2.00\pic\include\pic16f18323.h"
   696                           ADRES equ 09Bh ;# 
   697  009B                     # 1893 "C:\Program Files (x86)\Microchip\xc8\v2.00\pic\include\pic16f18323.h"
   698                           ADRESL equ 09Bh ;# 
   699  009B                     # 1913 "C:\Program Files (x86)\Microchip\xc8\v2.00\pic\include\pic16f18323.h"
   700                           ADRESH equ 09Ch ;# 
   701  009C                     # 1933 "C:\Program Files (x86)\Microchip\xc8\v2.00\pic\include\pic16f18323.h"
   702                           ADCON0 equ 09Dh ;# 
   703  009D                     # 2019 "C:\Program Files (x86)\Microchip\xc8\v2.00\pic\include\pic16f18323.h"
   704                           ADCON1 equ 09Eh ;# 
   705  009E                     # 2091 "C:\Program Files (x86)\Microchip\xc8\v2.00\pic\include\pic16f18323.h"
   706                           ADACT equ 09Fh ;# 
   707  009F                     # 2137 "C:\Program Files (x86)\Microchip\xc8\v2.00\pic\include\pic16f18323.h"
   708                           LATA equ 010Ch ;# 
   709  010C                     # 2182 "C:\Program Files (x86)\Microchip\xc8\v2.00\pic\include\pic16f18323.h"
   710                           LATC equ 010Eh ;# 
   711  010E                     # 2232 "C:\Program Files (x86)\Microchip\xc8\v2.00\pic\include\pic16f18323.h"
   712                           CM1CON0 equ 0111h ;# 
   713  0111                     # 2284 "C:\Program Files (x86)\Microchip\xc8\v2.00\pic\include\pic16f18323.h"
   714                           CM1CON1 equ 0112h ;# 
   715  0112                     # 2360 "C:\Program Files (x86)\Microchip\xc8\v2.00\pic\include\pic16f18323.h"
   716                           CM2CON0 equ 0113h ;# 
   717  0113                     # 2412 "C:\Program Files (x86)\Microchip\xc8\v2.00\pic\include\pic16f18323.h"
   718                           CM2CON1 equ 0114h ;# 
   719  0114                     # 2488 "C:\Program Files (x86)\Microchip\xc8\v2.00\pic\include\pic16f18323.h"
   720                           CMOUT equ 0115h ;# 
   721  0115                     # 2514 "C:\Program Files (x86)\Microchip\xc8\v2.00\pic\include\pic16f18323.h"
   722                           BORCON equ 0116h ;# 
   723  0116                     # 2541 "C:\Program Files (x86)\Microchip\xc8\v2.00\pic\include\pic16f18323.h"
   724                           FVRCON equ 0117h ;# 
   725  0117                     # 2617 "C:\Program Files (x86)\Microchip\xc8\v2.00\pic\include\pic16f18323.h"
   726                           DACCON0 equ 0118h ;# 
   727  0118                     # 2673 "C:\Program Files (x86)\Microchip\xc8\v2.00\pic\include\pic16f18323.h"
   728                           DACCON1 equ 0119h ;# 
   729  0119                     # 2725 "C:\Program Files (x86)\Microchip\xc8\v2.00\pic\include\pic16f18323.h"
   730                           ANSELA equ 018Ch ;# 
   731  018C                     # 2770 "C:\Program Files (x86)\Microchip\xc8\v2.00\pic\include\pic16f18323.h"
   732                           ANSELC equ 018Eh ;# 
   733  018E                     # 2820 "C:\Program Files (x86)\Microchip\xc8\v2.00\pic\include\pic16f18323.h"
   734                           VREGCON equ 0197h ;# 
   735  0197                     # 2841 "C:\Program Files (x86)\Microchip\xc8\v2.00\pic\include\pic16f18323.h"
   736                           RC1REG equ 0199h ;# 
   737  0199                     # 2846 "C:\Program Files (x86)\Microchip\xc8\v2.00\pic\include\pic16f18323.h"
   738                           RCREG equ 0199h ;# 
   739  0199                     # 2850 "C:\Program Files (x86)\Microchip\xc8\v2.00\pic\include\pic16f18323.h"
   740                           RCREG1 equ 0199h ;# 
   741  0199                     # 2895 "C:\Program Files (x86)\Microchip\xc8\v2.00\pic\include\pic16f18323.h"
   742                           TX1REG equ 019Ah ;# 
   743  019A                     # 2900 "C:\Program Files (x86)\Microchip\xc8\v2.00\pic\include\pic16f18323.h"
   744                           TXREG1 equ 019Ah ;# 
   745  019A                     # 2904 "C:\Program Files (x86)\Microchip\xc8\v2.00\pic\include\pic16f18323.h"
   746                           TXREG equ 019Ah ;# 
   747  019A                     # 2949 "C:\Program Files (x86)\Microchip\xc8\v2.00\pic\include\pic16f18323.h"
   748                           SP1BRG equ 019Bh ;# 
   749  019B                     # 2956 "C:\Program Files (x86)\Microchip\xc8\v2.00\pic\include\pic16f18323.h"
   750                           SP1BRGL equ 019Bh ;# 
   751  019B                     # 2961 "C:\Program Files (x86)\Microchip\xc8\v2.00\pic\include\pic16f18323.h"
   752                           SPBRG equ 019Bh ;# 
   753  019B                     # 2965 "C:\Program Files (x86)\Microchip\xc8\v2.00\pic\include\pic16f18323.h"
   754                           SPBRG1 equ 019Bh ;# 
   755  019B                     # 2969 "C:\Program Files (x86)\Microchip\xc8\v2.00\pic\include\pic16f18323.h"
   756                           SPBRGL equ 019Bh ;# 
   757  019B                     # 3026 "C:\Program Files (x86)\Microchip\xc8\v2.00\pic\include\pic16f18323.h"
   758                           SP1BRGH equ 019Ch ;# 
   759  019C                     # 3031 "C:\Program Files (x86)\Microchip\xc8\v2.00\pic\include\pic16f18323.h"
   760                           SPBRGH equ 019Ch ;# 
   761  019C                     # 3035 "C:\Program Files (x86)\Microchip\xc8\v2.00\pic\include\pic16f18323.h"
   762                           SPBRGH1 equ 019Ch ;# 
   763  019C                     # 3080 "C:\Program Files (x86)\Microchip\xc8\v2.00\pic\include\pic16f18323.h"
   764                           RC1STA equ 019Dh ;# 
   765  019D                     # 3085 "C:\Program Files (x86)\Microchip\xc8\v2.00\pic\include\pic16f18323.h"
   766                           RCSTA1 equ 019Dh ;# 
   767  019D                     # 3089 "C:\Program Files (x86)\Microchip\xc8\v2.00\pic\include\pic16f18323.h"
   768                           RCSTA equ 019Dh ;# 
   769  019D                     # 3260 "C:\Program Files (x86)\Microchip\xc8\v2.00\pic\include\pic16f18323.h"
   770                           TX1STA equ 019Eh ;# 
   771  019E                     # 3265 "C:\Program Files (x86)\Microchip\xc8\v2.00\pic\include\pic16f18323.h"
   772                           TXSTA1 equ 019Eh ;# 
   773  019E                     # 3269 "C:\Program Files (x86)\Microchip\xc8\v2.00\pic\include\pic16f18323.h"
   774                           TXSTA equ 019Eh ;# 
   775  019E                     # 3440 "C:\Program Files (x86)\Microchip\xc8\v2.00\pic\include\pic16f18323.h"
   776                           BAUD1CON equ 019Fh ;# 
   777  019F                     # 3445 "C:\Program Files (x86)\Microchip\xc8\v2.00\pic\include\pic16f18323.h"
   778                           BAUDCON1 equ 019Fh ;# 
   779  019F                     # 3449 "C:\Program Files (x86)\Microchip\xc8\v2.00\pic\include\pic16f18323.h"
   780                           BAUDCTL1 equ 019Fh ;# 
   781  019F                     # 3453 "C:\Program Files (x86)\Microchip\xc8\v2.00\pic\include\pic16f18323.h"
   782                           BAUDCON equ 019Fh ;# 
   783  019F                     # 3457 "C:\Program Files (x86)\Microchip\xc8\v2.00\pic\include\pic16f18323.h"
   784                           BAUDCTL equ 019Fh ;# 
   785  019F                     # 3686 "C:\Program Files (x86)\Microchip\xc8\v2.00\pic\include\pic16f18323.h"
   786                           WPUA equ 020Ch ;# 
   787  020C                     # 3736 "C:\Program Files (x86)\Microchip\xc8\v2.00\pic\include\pic16f18323.h"
   788                           WPUC equ 020Eh ;# 
   789  020E                     # 3786 "C:\Program Files (x86)\Microchip\xc8\v2.00\pic\include\pic16f18323.h"
   790                           SSP1BUF equ 0211h ;# 
   791  0211                     # 3791 "C:\Program Files (x86)\Microchip\xc8\v2.00\pic\include\pic16f18323.h"
   792                           SSPBUF equ 0211h ;# 
   793  0211                     # 4040 "C:\Program Files (x86)\Microchip\xc8\v2.00\pic\include\pic16f18323.h"
   794                           SSP1ADD equ 0212h ;# 
   795  0212                     # 4045 "C:\Program Files (x86)\Microchip\xc8\v2.00\pic\include\pic16f18323.h"
   796                           SSPADD equ 0212h ;# 
   797  0212                     # 4294 "C:\Program Files (x86)\Microchip\xc8\v2.00\pic\include\pic16f18323.h"
   798                           SSP1MSK equ 0213h ;# 
   799  0213                     # 4299 "C:\Program Files (x86)\Microchip\xc8\v2.00\pic\include\pic16f18323.h"
   800                           SSPMSK equ 0213h ;# 
   801  0213                     # 4548 "C:\Program Files (x86)\Microchip\xc8\v2.00\pic\include\pic16f18323.h"
   802                           SSP1STAT equ 0214h ;# 
   803  0214                     # 4553 "C:\Program Files (x86)\Microchip\xc8\v2.00\pic\include\pic16f18323.h"
   804                           SSPSTAT equ 0214h ;# 
   805  0214                     # 4670 "C:\Program Files (x86)\Microchip\xc8\v2.00\pic\include\pic16f18323.h"
   806                           SSP1CON1 equ 0215h ;# 
   807  0215                     # 4675 "C:\Program Files (x86)\Microchip\xc8\v2.00\pic\include\pic16f18323.h"
   808                           SSPCON equ 0215h ;# 
   809  0215                     # 4679 "C:\Program Files (x86)\Microchip\xc8\v2.00\pic\include\pic16f18323.h"
   810                           SSPCON1 equ 0215h ;# 
   811  0215                     # 4683 "C:\Program Files (x86)\Microchip\xc8\v2.00\pic\include\pic16f18323.h"
   812                           SSP1CON equ 0215h ;# 
   813  0215                     # 4940 "C:\Program Files (x86)\Microchip\xc8\v2.00\pic\include\pic16f18323.h"
   814                           SSP1CON2 equ 0216h ;# 
   815  0216                     # 4945 "C:\Program Files (x86)\Microchip\xc8\v2.00\pic\include\pic16f18323.h"
   816                           SSPCON2 equ 0216h ;# 
   817  0216                     # 5062 "C:\Program Files (x86)\Microchip\xc8\v2.00\pic\include\pic16f18323.h"
   818                           SSP1CON3 equ 0217h ;# 
   819  0217                     # 5067 "C:\Program Files (x86)\Microchip\xc8\v2.00\pic\include\pic16f18323.h"
   820                           SSPCON3 equ 0217h ;# 
   821  0217                     # 5184 "C:\Program Files (x86)\Microchip\xc8\v2.00\pic\include\pic16f18323.h"
   822                           ODCONA equ 028Ch ;# 
   823  028C                     # 5229 "C:\Program Files (x86)\Microchip\xc8\v2.00\pic\include\pic16f18323.h"
   824                           ODCONC equ 028Eh ;# 
   825  028E                     # 5279 "C:\Program Files (x86)\Microchip\xc8\v2.00\pic\include\pic16f18323.h"
   826                           CCPR1 equ 0291h ;# 
   827  0291                     # 5286 "C:\Program Files (x86)\Microchip\xc8\v2.00\pic\include\pic16f18323.h"
   828                           CCPR1L equ 0291h ;# 
   829  0291                     # 5306 "C:\Program Files (x86)\Microchip\xc8\v2.00\pic\include\pic16f18323.h"
   830                           CCPR1H equ 0292h ;# 
   831  0292                     # 5326 "C:\Program Files (x86)\Microchip\xc8\v2.00\pic\include\pic16f18323.h"
   832                           CCP1CON equ 0293h ;# 
   833  0293                     # 5391 "C:\Program Files (x86)\Microchip\xc8\v2.00\pic\include\pic16f18323.h"
   834                           CCP1CAP equ 0294h ;# 
   835  0294                     # 5431 "C:\Program Files (x86)\Microchip\xc8\v2.00\pic\include\pic16f18323.h"
   836                           CCPR2 equ 0295h ;# 
   837  0295                     # 5438 "C:\Program Files (x86)\Microchip\xc8\v2.00\pic\include\pic16f18323.h"
   838                           CCPR2L equ 0295h ;# 
   839  0295                     # 5458 "C:\Program Files (x86)\Microchip\xc8\v2.00\pic\include\pic16f18323.h"
   840                           CCPR2H equ 0296h ;# 
   841  0296                     # 5478 "C:\Program Files (x86)\Microchip\xc8\v2.00\pic\include\pic16f18323.h"
   842                           CCP2CON equ 0297h ;# 
   843  0297                     # 5543 "C:\Program Files (x86)\Microchip\xc8\v2.00\pic\include\pic16f18323.h"
   844                           CCP2CAP equ 0298h ;# 
   845  0298                     # 5583 "C:\Program Files (x86)\Microchip\xc8\v2.00\pic\include\pic16f18323.h"
   846                           SLRCONA equ 030Ch ;# 
   847  030C                     # 5628 "C:\Program Files (x86)\Microchip\xc8\v2.00\pic\include\pic16f18323.h"
   848                           SLRCONC equ 030Eh ;# 
   849  030E                     # 5678 "C:\Program Files (x86)\Microchip\xc8\v2.00\pic\include\pic16f18323.h"
   850                           INLVLA equ 038Ch ;# 
   851  038C                     # 5728 "C:\Program Files (x86)\Microchip\xc8\v2.00\pic\include\pic16f18323.h"
   852                           INLVLC equ 038Eh ;# 
   853  038E                     # 5778 "C:\Program Files (x86)\Microchip\xc8\v2.00\pic\include\pic16f18323.h"
   854                           IOCAP equ 0391h ;# 
   855  0391                     # 5828 "C:\Program Files (x86)\Microchip\xc8\v2.00\pic\include\pic16f18323.h"
   856                           IOCAN equ 0392h ;# 
   857  0392                     # 5878 "C:\Program Files (x86)\Microchip\xc8\v2.00\pic\include\pic16f18323.h"
   858                           IOCAF equ 0393h ;# 
   859  0393                     # 5928 "C:\Program Files (x86)\Microchip\xc8\v2.00\pic\include\pic16f18323.h"
   860                           IOCCP equ 0397h ;# 
   861  0397                     # 5978 "C:\Program Files (x86)\Microchip\xc8\v2.00\pic\include\pic16f18323.h"
   862                           IOCCN equ 0398h ;# 
   863  0398                     # 6028 "C:\Program Files (x86)\Microchip\xc8\v2.00\pic\include\pic16f18323.h"
   864                           IOCCF equ 0399h ;# 
   865  0399                     # 6078 "C:\Program Files (x86)\Microchip\xc8\v2.00\pic\include\pic16f18323.h"
   866                           CLKRCON equ 039Ah ;# 
   867  039A                     # 6143 "C:\Program Files (x86)\Microchip\xc8\v2.00\pic\include\pic16f18323.h"
   868                           MDCON equ 039Ch ;# 
   869  039C                     # 6183 "C:\Program Files (x86)\Microchip\xc8\v2.00\pic\include\pic16f18323.h"
   870                           MDSRC equ 039Dh ;# 
   871  039D                     # 6229 "C:\Program Files (x86)\Microchip\xc8\v2.00\pic\include\pic16f18323.h"
   872                           MDCARH equ 039Eh ;# 
   873  039E                     # 6288 "C:\Program Files (x86)\Microchip\xc8\v2.00\pic\include\pic16f18323.h"
   874                           MDCARL equ 039Fh ;# 
   875  039F                     # 6349 "C:\Program Files (x86)\Microchip\xc8\v2.00\pic\include\pic16f18323.h"
   876                           NCO1ACC equ 0498h ;# 
   877  0498                     # 6356 "C:\Program Files (x86)\Microchip\xc8\v2.00\pic\include\pic16f18323.h"
   878                           NCO1ACCL equ 0498h ;# 
   879  0498                     # 6376 "C:\Program Files (x86)\Microchip\xc8\v2.00\pic\include\pic16f18323.h"
   880                           NCO1ACCH equ 0499h ;# 
   881  0499                     # 6396 "C:\Program Files (x86)\Microchip\xc8\v2.00\pic\include\pic16f18323.h"
   882                           NCO1ACCU equ 049Ah ;# 
   883  049A                     # 6418 "C:\Program Files (x86)\Microchip\xc8\v2.00\pic\include\pic16f18323.h"
   884                           NCO1INC equ 049Bh ;# 
   885  049B                     # 6425 "C:\Program Files (x86)\Microchip\xc8\v2.00\pic\include\pic16f18323.h"
   886                           NCO1INCL equ 049Bh ;# 
   887  049B                     # 6445 "C:\Program Files (x86)\Microchip\xc8\v2.00\pic\include\pic16f18323.h"
   888                           NCO1INCH equ 049Ch ;# 
   889  049C                     # 6465 "C:\Program Files (x86)\Microchip\xc8\v2.00\pic\include\pic16f18323.h"
   890                           NCO1INCU equ 049Dh ;# 
   891  049D                     # 6485 "C:\Program Files (x86)\Microchip\xc8\v2.00\pic\include\pic16f18323.h"
   892                           NCO1CON equ 049Eh ;# 
   893  049E                     # 6525 "C:\Program Files (x86)\Microchip\xc8\v2.00\pic\include\pic16f18323.h"
   894                           NCO1CLK equ 049Fh ;# 
   895  049F                     # 6552 "C:\Program Files (x86)\Microchip\xc8\v2.00\pic\include\pic16f18323.h"
   896                           PWM5DCL equ 0617h ;# 
   897  0617                     # 6588 "C:\Program Files (x86)\Microchip\xc8\v2.00\pic\include\pic16f18323.h"
   898                           PWM5DCH equ 0618h ;# 
   899  0618                     # 6658 "C:\Program Files (x86)\Microchip\xc8\v2.00\pic\include\pic16f18323.h"
   900                           PWM5CON equ 0619h ;# 
   901  0619                     # 6663 "C:\Program Files (x86)\Microchip\xc8\v2.00\pic\include\pic16f18323.h"
   902                           PWM5CON0 equ 0619h ;# 
   903  0619                     # 6724 "C:\Program Files (x86)\Microchip\xc8\v2.00\pic\include\pic16f18323.h"
   904                           PWM6DCL equ 061Ah ;# 
   905  061A                     # 6760 "C:\Program Files (x86)\Microchip\xc8\v2.00\pic\include\pic16f18323.h"
   906                           PWM6DCH equ 061Bh ;# 
   907  061B                     # 6830 "C:\Program Files (x86)\Microchip\xc8\v2.00\pic\include\pic16f18323.h"
   908                           PWM6CON equ 061Ch ;# 
   909  061C                     # 6835 "C:\Program Files (x86)\Microchip\xc8\v2.00\pic\include\pic16f18323.h"
   910                           PWM6CON0 equ 061Ch ;# 
   911  061C                     # 6896 "C:\Program Files (x86)\Microchip\xc8\v2.00\pic\include\pic16f18323.h"
   912                           CWG1CLKCON equ 0691h ;# 
   913  0691                     # 6924 "C:\Program Files (x86)\Microchip\xc8\v2.00\pic\include\pic16f18323.h"
   914                           CWG1DAT equ 0692h ;# 
   915  0692                     # 6970 "C:\Program Files (x86)\Microchip\xc8\v2.00\pic\include\pic16f18323.h"
   916                           CWG1DBR equ 0693h ;# 
   917  0693                     # 7074 "C:\Program Files (x86)\Microchip\xc8\v2.00\pic\include\pic16f18323.h"
   918                           CWG1DBF equ 0694h ;# 
   919  0694                     # 7178 "C:\Program Files (x86)\Microchip\xc8\v2.00\pic\include\pic16f18323.h"
   920                           CWG1CON0 equ 0695h ;# 
   921  0695                     # 7279 "C:\Program Files (x86)\Microchip\xc8\v2.00\pic\include\pic16f18323.h"
   922                           CWG1CON1 equ 0696h ;# 
   923  0696                     # 7357 "C:\Program Files (x86)\Microchip\xc8\v2.00\pic\include\pic16f18323.h"
   924                           CWG1AS0 equ 0697h ;# 
   925  0697                     # 7477 "C:\Program Files (x86)\Microchip\xc8\v2.00\pic\include\pic16f18323.h"
   926                           CWG1AS1 equ 0698h ;# 
   927  0698                     # 7515 "C:\Program Files (x86)\Microchip\xc8\v2.00\pic\include\pic16f18323.h"
   928                           CWG1STR equ 0699h ;# 
   929  0699                     # 7627 "C:\Program Files (x86)\Microchip\xc8\v2.00\pic\include\pic16f18323.h"
   930                           NVMADR equ 0891h ;# 
   931  0891                     # 7632 "C:\Program Files (x86)\Microchip\xc8\v2.00\pic\include\pic16f18323.h"
   932                           EEADR equ 0891h ;# 
   933  0891                     # 7636 "C:\Program Files (x86)\Microchip\xc8\v2.00\pic\include\pic16f18323.h"
   934                           PMADR equ 0891h ;# 
   935  0891                     # 7643 "C:\Program Files (x86)\Microchip\xc8\v2.00\pic\include\pic16f18323.h"
   936                           NVMADRL equ 0891h ;# 
   937  0891                     # 7648 "C:\Program Files (x86)\Microchip\xc8\v2.00\pic\include\pic16f18323.h"
   938                           EEADRL equ 0891h ;# 
   939  0891                     # 7652 "C:\Program Files (x86)\Microchip\xc8\v2.00\pic\include\pic16f18323.h"
   940                           PMADRL equ 0891h ;# 
   941  0891                     # 8045 "C:\Program Files (x86)\Microchip\xc8\v2.00\pic\include\pic16f18323.h"
   942                           NVMADRH equ 0892h ;# 
   943  0892                     # 8050 "C:\Program Files (x86)\Microchip\xc8\v2.00\pic\include\pic16f18323.h"
   944                           EEADRH equ 0892h ;# 
   945  0892                     # 8054 "C:\Program Files (x86)\Microchip\xc8\v2.00\pic\include\pic16f18323.h"
   946                           PMADRH equ 0892h ;# 
   947  0892                     # 8411 "C:\Program Files (x86)\Microchip\xc8\v2.00\pic\include\pic16f18323.h"
   948                           NVMDAT equ 0893h ;# 
   949  0893                     # 8416 "C:\Program Files (x86)\Microchip\xc8\v2.00\pic\include\pic16f18323.h"
   950                           EEDAT equ 0893h ;# 
   951  0893                     # 8420 "C:\Program Files (x86)\Microchip\xc8\v2.00\pic\include\pic16f18323.h"
   952                           PMDAT equ 0893h ;# 
   953  0893                     # 8427 "C:\Program Files (x86)\Microchip\xc8\v2.00\pic\include\pic16f18323.h"
   954                           NVMDATL equ 0893h ;# 
   955  0893                     # 8432 "C:\Program Files (x86)\Microchip\xc8\v2.00\pic\include\pic16f18323.h"
   956                           EEDATL equ 0893h ;# 
   957  0893                     # 8436 "C:\Program Files (x86)\Microchip\xc8\v2.00\pic\include\pic16f18323.h"
   958                           PMDATL equ 0893h ;# 
   959  0893                     # 8679 "C:\Program Files (x86)\Microchip\xc8\v2.00\pic\include\pic16f18323.h"
   960                           NVMDATH equ 0894h ;# 
   961  0894                     # 8684 "C:\Program Files (x86)\Microchip\xc8\v2.00\pic\include\pic16f18323.h"
   962                           EEDATH equ 0894h ;# 
   963  0894                     # 8688 "C:\Program Files (x86)\Microchip\xc8\v2.00\pic\include\pic16f18323.h"
   964                           PMDATH equ 0894h ;# 
   965  0894                     # 8895 "C:\Program Files (x86)\Microchip\xc8\v2.00\pic\include\pic16f18323.h"
   966                           NVMCON1 equ 0895h ;# 
   967  0895                     # 8900 "C:\Program Files (x86)\Microchip\xc8\v2.00\pic\include\pic16f18323.h"
   968                           EECON1 equ 0895h ;# 
   969  0895                     # 8904 "C:\Program Files (x86)\Microchip\xc8\v2.00\pic\include\pic16f18323.h"
   970                           PMCON1 equ 0895h ;# 
   971  0895                     # 9084 "C:\Program Files (x86)\Microchip\xc8\v2.00\pic\include\pic16f18323.h"
   972                           NVMCON2 equ 0896h ;# 
   973  0896                     # 9089 "C:\Program Files (x86)\Microchip\xc8\v2.00\pic\include\pic16f18323.h"
   974                           EECON2 equ 0896h ;# 
   975  0896                     # 9093 "C:\Program Files (x86)\Microchip\xc8\v2.00\pic\include\pic16f18323.h"
   976                           PMCON2 equ 0896h ;# 
   977  0896                     # 9186 "C:\Program Files (x86)\Microchip\xc8\v2.00\pic\include\pic16f18323.h"
   978                           PCON0 equ 089Bh ;# 
   979  089B                     # 9243 "C:\Program Files (x86)\Microchip\xc8\v2.00\pic\include\pic16f18323.h"
   980                           PMD0 equ 0911h ;# 
   981  0911                     # 9288 "C:\Program Files (x86)\Microchip\xc8\v2.00\pic\include\pic16f18323.h"
   982                           PMD1 equ 0912h ;# 
   983  0912                     # 9327 "C:\Program Files (x86)\Microchip\xc8\v2.00\pic\include\pic16f18323.h"
   984                           PMD2 equ 0913h ;# 
   985  0913                     # 9367 "C:\Program Files (x86)\Microchip\xc8\v2.00\pic\include\pic16f18323.h"
   986                           PMD3 equ 0914h ;# 
   987  0914                     # 9412 "C:\Program Files (x86)\Microchip\xc8\v2.00\pic\include\pic16f18323.h"
   988                           PMD4 equ 0915h ;# 
   989  0915                     # 9440 "C:\Program Files (x86)\Microchip\xc8\v2.00\pic\include\pic16f18323.h"
   990                           PMD5 equ 0916h ;# 
   991  0916                     # 9472 "C:\Program Files (x86)\Microchip\xc8\v2.00\pic\include\pic16f18323.h"
   992                           CPUDOZE equ 0918h ;# 
   993  0918                     # 9537 "C:\Program Files (x86)\Microchip\xc8\v2.00\pic\include\pic16f18323.h"
   994                           OSCCON1 equ 0919h ;# 
   995  0919                     # 9607 "C:\Program Files (x86)\Microchip\xc8\v2.00\pic\include\pic16f18323.h"
   996                           OSCCON2 equ 091Ah ;# 
   997  091A                     # 9677 "C:\Program Files (x86)\Microchip\xc8\v2.00\pic\include\pic16f18323.h"
   998                           OSCCON3 equ 091Bh ;# 
   999  091B                     # 9722 "C:\Program Files (x86)\Microchip\xc8\v2.00\pic\include\pic16f18323.h"
  1000                           OSCSTAT1 equ 091Ch ;# 
  1001  091C                     # 9774 "C:\Program Files (x86)\Microchip\xc8\v2.00\pic\include\pic16f18323.h"
  1002                           OSCEN equ 091Dh ;# 
  1003  091D                     # 9820 "C:\Program Files (x86)\Microchip\xc8\v2.00\pic\include\pic16f18323.h"
  1004                           OSCTUNE equ 091Eh ;# 
  1005  091E                     # 9878 "C:\Program Files (x86)\Microchip\xc8\v2.00\pic\include\pic16f18323.h"
  1006                           OSCFRQ equ 091Fh ;# 
  1007  091F                     # 9924 "C:\Program Files (x86)\Microchip\xc8\v2.00\pic\include\pic16f18323.h"
  1008                           PPSLOCK equ 0E0Fh ;# 
  1009  0E0F                     # 9944 "C:\Program Files (x86)\Microchip\xc8\v2.00\pic\include\pic16f18323.h"
  1010                           INTPPS equ 0E10h ;# 
  1011  0E10                     # 9996 "C:\Program Files (x86)\Microchip\xc8\v2.00\pic\include\pic16f18323.h"
  1012                           T0CKIPPS equ 0E11h ;# 
  1013  0E11                     # 10048 "C:\Program Files (x86)\Microchip\xc8\v2.00\pic\include\pic16f18323.h"
  1014                           T1CKIPPS equ 0E12h ;# 
  1015  0E12                     # 10100 "C:\Program Files (x86)\Microchip\xc8\v2.00\pic\include\pic16f18323.h"
  1016                           T1GPPS equ 0E13h ;# 
  1017  0E13                     # 10152 "C:\Program Files (x86)\Microchip\xc8\v2.00\pic\include\pic16f18323.h"
  1018                           CCP1PPS equ 0E14h ;# 
  1019  0E14                     # 10204 "C:\Program Files (x86)\Microchip\xc8\v2.00\pic\include\pic16f18323.h"
  1020                           CCP2PPS equ 0E15h ;# 
  1021  0E15                     # 10256 "C:\Program Files (x86)\Microchip\xc8\v2.00\pic\include\pic16f18323.h"
  1022                           CWG1PPS equ 0E18h ;# 
  1023  0E18                     # 10308 "C:\Program Files (x86)\Microchip\xc8\v2.00\pic\include\pic16f18323.h"
  1024                           MDCIN1PPS equ 0E1Ah ;# 
  1025  0E1A                     # 10360 "C:\Program Files (x86)\Microchip\xc8\v2.00\pic\include\pic16f18323.h"
  1026                           MDCIN2PPS equ 0E1Bh ;# 
  1027  0E1B                     # 10412 "C:\Program Files (x86)\Microchip\xc8\v2.00\pic\include\pic16f18323.h"
  1028                           MDMINPPS equ 0E1Ch ;# 
  1029  0E1C                     # 10464 "C:\Program Files (x86)\Microchip\xc8\v2.00\pic\include\pic16f18323.h"
  1030                           SSP1CLKPPS equ 0E20h ;# 
  1031  0E20                     # 10516 "C:\Program Files (x86)\Microchip\xc8\v2.00\pic\include\pic16f18323.h"
  1032                           SSP1DATPPS equ 0E21h ;# 
  1033  0E21                     # 10568 "C:\Program Files (x86)\Microchip\xc8\v2.00\pic\include\pic16f18323.h"
  1034                           SSP1SSPPS equ 0E22h ;# 
  1035  0E22                     # 10620 "C:\Program Files (x86)\Microchip\xc8\v2.00\pic\include\pic16f18323.h"
  1036                           RXPPS equ 0E24h ;# 
  1037  0E24                     # 10672 "C:\Program Files (x86)\Microchip\xc8\v2.00\pic\include\pic16f18323.h"
  1038                           TXPPS equ 0E25h ;# 
  1039  0E25                     # 10724 "C:\Program Files (x86)\Microchip\xc8\v2.00\pic\include\pic16f18323.h"
  1040                           CLCIN0PPS equ 0E28h ;# 
  1041  0E28                     # 10776 "C:\Program Files (x86)\Microchip\xc8\v2.00\pic\include\pic16f18323.h"
  1042                           CLCIN1PPS equ 0E29h ;# 
  1043  0E29                     # 10828 "C:\Program Files (x86)\Microchip\xc8\v2.00\pic\include\pic16f18323.h"
  1044                           CLCIN2PPS equ 0E2Ah ;# 
  1045  0E2A                     # 10880 "C:\Program Files (x86)\Microchip\xc8\v2.00\pic\include\pic16f18323.h"
  1046                           CLCIN3PPS equ 0E2Bh ;# 
  1047  0E2B                     # 10932 "C:\Program Files (x86)\Microchip\xc8\v2.00\pic\include\pic16f18323.h"
  1048                           RA0PPS equ 0E90h ;# 
  1049  0E90                     # 10984 "C:\Program Files (x86)\Microchip\xc8\v2.00\pic\include\pic16f18323.h"
  1050                           RA1PPS equ 0E91h ;# 
  1051  0E91                     # 11036 "C:\Program Files (x86)\Microchip\xc8\v2.00\pic\include\pic16f18323.h"
  1052                           RA2PPS equ 0E92h ;# 
  1053  0E92                     # 11088 "C:\Program Files (x86)\Microchip\xc8\v2.00\pic\include\pic16f18323.h"
  1054                           RA4PPS equ 0E94h ;# 
  1055  0E94                     # 11140 "C:\Program Files (x86)\Microchip\xc8\v2.00\pic\include\pic16f18323.h"
  1056                           RA5PPS equ 0E95h ;# 
  1057  0E95                     # 11192 "C:\Program Files (x86)\Microchip\xc8\v2.00\pic\include\pic16f18323.h"
  1058                           RC0PPS equ 0EA0h ;# 
  1059  0EA0                     # 11244 "C:\Program Files (x86)\Microchip\xc8\v2.00\pic\include\pic16f18323.h"
  1060                           RC1PPS equ 0EA1h ;# 
  1061  0EA1                     # 11296 "C:\Program Files (x86)\Microchip\xc8\v2.00\pic\include\pic16f18323.h"
  1062                           RC2PPS equ 0EA2h ;# 
  1063  0EA2                     # 11348 "C:\Program Files (x86)\Microchip\xc8\v2.00\pic\include\pic16f18323.h"
  1064                           RC3PPS equ 0EA3h ;# 
  1065  0EA3                     # 11400 "C:\Program Files (x86)\Microchip\xc8\v2.00\pic\include\pic16f18323.h"
  1066                           RC4PPS equ 0EA4h ;# 
  1067  0EA4                     # 11452 "C:\Program Files (x86)\Microchip\xc8\v2.00\pic\include\pic16f18323.h"
  1068                           RC5PPS equ 0EA5h ;# 
  1069  0EA5                     # 11504 "C:\Program Files (x86)\Microchip\xc8\v2.00\pic\include\pic16f18323.h"
  1070                           CLCDATA equ 0F0Fh ;# 
  1071  0F0F                     # 11530 "C:\Program Files (x86)\Microchip\xc8\v2.00\pic\include\pic16f18323.h"
  1072                           CLC1CON equ 0F10h ;# 
  1073  0F10                     # 11648 "C:\Program Files (x86)\Microchip\xc8\v2.00\pic\include\pic16f18323.h"
  1074                           CLC1POL equ 0F11h ;# 
  1075  0F11                     # 11726 "C:\Program Files (x86)\Microchip\xc8\v2.00\pic\include\pic16f18323.h"
  1076                           CLC1SEL0 equ 0F12h ;# 
  1077  0F12                     # 11818 "C:\Program Files (x86)\Microchip\xc8\v2.00\pic\include\pic16f18323.h"
  1078                           CLC1SEL1 equ 0F13h ;# 
  1079  0F13                     # 11910 "C:\Program Files (x86)\Microchip\xc8\v2.00\pic\include\pic16f18323.h"
  1080                           CLC1SEL2 equ 0F14h ;# 
  1081  0F14                     # 12002 "C:\Program Files (x86)\Microchip\xc8\v2.00\pic\include\pic16f18323.h"
  1082                           CLC1SEL3 equ 0F15h ;# 
  1083  0F15                     # 12094 "C:\Program Files (x86)\Microchip\xc8\v2.00\pic\include\pic16f18323.h"
  1084                           CLC1GLS0 equ 0F16h ;# 
  1085  0F16                     # 12206 "C:\Program Files (x86)\Microchip\xc8\v2.00\pic\include\pic16f18323.h"
  1086                           CLC1GLS1 equ 0F17h ;# 
  1087  0F17                     # 12318 "C:\Program Files (x86)\Microchip\xc8\v2.00\pic\include\pic16f18323.h"
  1088                           CLC1GLS2 equ 0F18h ;# 
  1089  0F18                     # 12430 "C:\Program Files (x86)\Microchip\xc8\v2.00\pic\include\pic16f18323.h"
  1090                           CLC1GLS3 equ 0F19h ;# 
  1091  0F19                     # 12542 "C:\Program Files (x86)\Microchip\xc8\v2.00\pic\include\pic16f18323.h"
  1092                           CLC2CON equ 0F1Ah ;# 
  1093  0F1A                     # 12660 "C:\Program Files (x86)\Microchip\xc8\v2.00\pic\include\pic16f18323.h"
  1094                           CLC2POL equ 0F1Bh ;# 
  1095  0F1B                     # 12738 "C:\Program Files (x86)\Microchip\xc8\v2.00\pic\include\pic16f18323.h"
  1096                           CLC2SEL0 equ 0F1Ch ;# 
  1097  0F1C                     # 12830 "C:\Program Files (x86)\Microchip\xc8\v2.00\pic\include\pic16f18323.h"
  1098                           CLC2SEL1 equ 0F1Dh ;# 
  1099  0F1D                     # 12922 "C:\Program Files (x86)\Microchip\xc8\v2.00\pic\include\pic16f18323.h"
  1100                           CLC2SEL2 equ 0F1Eh ;# 
  1101  0F1E                     # 13014 "C:\Program Files (x86)\Microchip\xc8\v2.00\pic\include\pic16f18323.h"
  1102                           CLC2SEL3 equ 0F1Fh ;# 
  1103  0F1F                     # 13106 "C:\Program Files (x86)\Microchip\xc8\v2.00\pic\include\pic16f18323.h"
  1104                           CLC2GLS0 equ 0F20h ;# 
  1105  0F20                     # 13218 "C:\Program Files (x86)\Microchip\xc8\v2.00\pic\include\pic16f18323.h"
  1106                           CLC2GLS1 equ 0F21h ;# 
  1107  0F21                     # 13330 "C:\Program Files (x86)\Microchip\xc8\v2.00\pic\include\pic16f18323.h"
  1108                           CLC2GLS2 equ 0F22h ;# 
  1109  0F22                     # 13442 "C:\Program Files (x86)\Microchip\xc8\v2.00\pic\include\pic16f18323.h"
  1110                           CLC2GLS3 equ 0F23h ;# 
  1111  0F23                     # 13554 "C:\Program Files (x86)\Microchip\xc8\v2.00\pic\include\pic16f18323.h"
  1112                           STATUS_SHAD equ 0FE4h ;# 
  1113  0FE4                     # 13586 "C:\Program Files (x86)\Microchip\xc8\v2.00\pic\include\pic16f18323.h"
  1114                           WREG_SHAD equ 0FE5h ;# 
  1115  0FE5                     # 13606 "C:\Program Files (x86)\Microchip\xc8\v2.00\pic\include\pic16f18323.h"
  1116                           BSR_SHAD equ 0FE6h ;# 
  1117  0FE6                     # 13626 "C:\Program Files (x86)\Microchip\xc8\v2.00\pic\include\pic16f18323.h"
  1118                           PCLATH_SHAD equ 0FE7h ;# 
  1119  0FE7                     # 13646 "C:\Program Files (x86)\Microchip\xc8\v2.00\pic\include\pic16f18323.h"
  1120                           FSR0L_SHAD equ 0FE8h ;# 
  1121  0FE8                     # 13666 "C:\Program Files (x86)\Microchip\xc8\v2.00\pic\include\pic16f18323.h"
  1122                           FSR0H_SHAD equ 0FE9h ;# 
  1123  0FE9                     # 13686 "C:\Program Files (x86)\Microchip\xc8\v2.00\pic\include\pic16f18323.h"
  1124                           FSR1L_SHAD equ 0FEAh ;# 
  1125  0FEA                     # 13706 "C:\Program Files (x86)\Microchip\xc8\v2.00\pic\include\pic16f18323.h"
  1126                           FSR1H_SHAD equ 0FEBh ;# 
  1127  0FEB                     # 13726 "C:\Program Files (x86)\Microchip\xc8\v2.00\pic\include\pic16f18323.h"
  1128                           STKPTR equ 0FEDh ;# 
  1129  0FED                     # 13746 "C:\Program Files (x86)\Microchip\xc8\v2.00\pic\include\pic16f18323.h"
  1130                           TOSL equ 0FEEh ;# 
  1131  0FEE                     # 13766 "C:\Program Files (x86)\Microchip\xc8\v2.00\pic\include\pic16f18323.h"
  1132                           TOSH equ 0FEFh ;# 
  1133  0FEF                     	FNCALL	_main,_printf
  1134                           	FNCALL	_printf,_vfprintf
  1135                           	FNCALL	_vfprintf,_vfpfcnvrt
  1136                           	FNCALL	_vfpfcnvrt,_dtoa
  1137                           	FNCALL	_vfpfcnvrt,_fputc
  1138                           	FNCALL	_dtoa,___aldiv
  1139                           	FNCALL	_dtoa,___almod
  1140                           	FNCALL	_dtoa,_abs
  1141                           	FNCALL	_dtoa,_pad
  1142                           	FNCALL	_pad,_fputc
  1143                           	FNCALL	_pad,_fputs
  1144                           	FNCALL	_pad,_strlen
  1145                           	FNCALL	_fputs,_fputc
  1146                           	FNCALL	_fputc,_putch
  1147                           	FNROOT	_main
  1148                           	FNCALL	intlevel1,_isr
  1149                           	global	intlevel1
  1150                           	FNROOT	intlevel1
  1151                           	global	_nout
  1152                           	global	_width
  1153                           	global	_prec
  1154                           	global	_flags
  1155                           	global	_dbuf
  1156                           	global	_RC2
  1157                           _RC2	set	0x72
  1158  0072                     	global	_RC1
  1159                           _RC1	set	0x71
  1160  0071                     	global	_RA4
  1161                           _RA4	set	0x64
  1162  0064                     	global	_RA5
  1163                           _RA5	set	0x65
  1164  0065                     	global	_TRISC
  1165                           _TRISC	set	0x8E
  1166  008E                     	global	_TRISA
  1167                           _TRISA	set	0x8C
  1168  008C                     psect	stringtext1,class=STRCODE,delta=2,noexec
  1169                           global __pstringtext1
  1170                           __pstringtext1:
  1171  041A                     	
  1172                           STR_2:	
  1173  041A                     	retlw	83	;'S'
  1174  041A  3453               	retlw	101	;'e'
  1175  041B  3465               	retlw	116	;'t'
  1176  041C  3474               	retlw	32	;' '
  1177  041D  3420               	retlw	116	;'t'
  1178  041E  3474               	retlw	104	;'h'
  1179  041F  3468               	retlw	101	;'e'
  1180  0420  3465               	retlw	32	;' '
  1181  0421  3420               	retlw	112	;'p'
  1182  0422  3470               	retlw	101	;'e'
  1183  0423  3465               	retlw	110	;'n'
  1184  0424  346E               	retlw	100	;'d'
  1185  0425  3464               	retlw	117	;'u'
  1186  0426  3475               	retlw	108	;'l'
  1187  0427  346C               	retlw	117	;'u'
  1188  0428  3475               	retlw	109	;'m'
  1189  0429  346D               	retlw	115	;'s'
  1190  042A  3473               	retlw	32	;' '
  1191  042B  3420               	retlw	105	;'i'
  1192  042C  3469               	retlw	110	;'n'
  1193  042D  346E               	retlw	32	;' '
  1194  042E  3420               	retlw	109	;'m'
  1195  042F  346D               	retlw	111	;'o'
  1196  0430  346F               	retlw	116	;'t'
  1197  0431  3474               	retlw	105	;'i'
  1198  0432  3469               	retlw	111	;'o'
  1199  0433  346F               	retlw	110	;'n'
  1200  0434  346E               	retlw	44	;','
  1201  0435  342C               	retlw	32	;' '
  1202  0436  3420               	retlw	116	;'t'
  1203  0437  3474               	retlw	104	;'h'
  1204  0438  3468               	retlw	101	;'e'
  1205  0439  3465               	retlw	110	;'n'
  1206  043A  346E               	retlw	32	;' '
  1207  043B  3420               	retlw	112	;'p'
  1208  043C  3470               	retlw	114	;'r'
  1209  043D  3472               	retlw	101	;'e'
  1210  043E  3465               	retlw	115	;'s'
  1211  043F  3473               	retlw	115	;'s'
  1212  0440  3473               	retlw	32	;' '
  1213  0441  3420               	retlw	83	;'S'
  1214  0442  3453               	retlw	116	;'t'
  1215  0443  3474               	retlw	97	;'a'
  1216  0444  3461               	retlw	114	;'r'
  1217  0445  3472               	retlw	116	;'t'
  1218  0446  3474               	retlw	0
  1219  0447  3400               psect	stringtext2,class=STRCODE,delta=2,noexec
  1220                           global __pstringtext2
  1221                           __pstringtext2:
  1222  04E3                     	
  1223                           STR_1:	
  1224  04E3                     	retlw	70	;'F'
  1225  04E3  3446               	retlw	105	;'i'
  1226  04E4  3469               	retlw	114	;'r'
  1227  04E5  3472               	retlw	109	;'m'
  1228  04E6  346D               	retlw	119	;'w'
  1229  04E7  3477               	retlw	97	;'a'
  1230  04E8  3461               	retlw	114	;'r'
  1231  04E9  3472               	retlw	101	;'e'
  1232  04EA  3465               	retlw	32	;' '
  1233  04EB  3420               	retlw	118	;'v'
  1234  04EC  3476               	retlw	101	;'e'
  1235  04ED  3465               	retlw	114	;'r'
  1236  04EE  3472               	retlw	115	;'s'
  1237  04EF  3473               	retlw	105	;'i'
  1238  04F0  3469               	retlw	111	;'o'
  1239  04F1  346F               	retlw	110	;'n'
  1240  04F2  346E               	retlw	58	;':'
  1241  04F3  343A               	retlw	32	;' '
  1242  04F4  3420               	retlw	37	;'%'
  1243  04F5  3425               	retlw	100	;'d'
  1244  04F6  3464               	retlw	46	;'.'
  1245  04F7  342E               	retlw	37	;'%'
  1246  04F8  3425               	retlw	100	;'d'
  1247  04F9  3464               	retlw	0
  1248  04FA  3400               psect	stringtext3,class=STRCODE,delta=2,noexec
  1249                           global __pstringtext3
  1250                           __pstringtext3:
  1251  0513                     	
  1252                           STR_3:	
  1253  0513                     	retlw	82	;'R'
  1254  0513  3452               	retlw	117	;'u'
  1255  0514  3475               	retlw	110	;'n'
  1256  0515  346E               	retlw	110	;'n'
  1257  0516  346E               	retlw	105	;'i'
  1258  0517  3469               	retlw	110	;'n'
  1259  0518  346E               	retlw	103	;'g'
  1260  0519  3467               	retlw	46	;'.'
  1261  051A  342E               	retlw	46	;'.'
  1262  051B  342E               	retlw	46	;'.'
  1263  051C  342E               	retlw	0
  1264  051D  3400               psect	stringtext4,class=STRCODE,delta=2,noexec
  1265                           global __pstringtext4
  1266                           __pstringtext4:
  1267  0000                     ; #config settings
  1268                           global __CFG_FEXTOSC$HS
  1269                           __CFG_FEXTOSC$HS equ 0x0
  1270  0000                     global __CFG_RSTOSC$HFINT32
  1271                           __CFG_RSTOSC$HFINT32 equ 0x0
  1272  0000                     global __CFG_CSWEN$OFF
  1273                           __CFG_CSWEN$OFF equ 0x0
  1274  0000                     global __CFG_FCMEN$OFF
  1275                           __CFG_FCMEN$OFF equ 0x0
  1276  0000                     global __CFG_MCLRE$ON
  1277                           __CFG_MCLRE$ON equ 0x0
  1278  0000                     global __CFG_PWRTE$ON
  1279                           __CFG_PWRTE$ON equ 0x0
  1280  0000                     global __CFG_WDTE$OFF
  1281                           __CFG_WDTE$OFF equ 0x0
  1282  0000                     global __CFG_LPBOREN$OFF
  1283                           __CFG_LPBOREN$OFF equ 0x0
  1284  0000                     global __CFG_BOREN$ON
  1285                           __CFG_BOREN$ON equ 0x0
  1286  0000                     global __CFG_BORV$HIGH
  1287                           __CFG_BORV$HIGH equ 0x0
  1288  0000                     global __CFG_PPS1WAY$ON
  1289                           __CFG_PPS1WAY$ON equ 0x0
  1290  0000                     global __CFG_STVREN$ON
  1291                           __CFG_STVREN$ON equ 0x0
  1292  0000                     global __CFG_DEBUG$OFF
  1293                           __CFG_DEBUG$OFF equ 0x0
  1294  0000                     global __CFG_WRT$ALL
  1295                           __CFG_WRT$ALL equ 0x0
  1296  0000                     global __CFG_LVP$ON
  1297                           __CFG_LVP$ON equ 0x0
  1298  0000                     global __CFG_CP$ON
  1299                           __CFG_CP$ON equ 0x0
  1300  0000                     global __CFG_CPD$ON
  1301                           __CFG_CPD$ON equ 0x0
  1302  0000                     	file	"C:\Users\sleep\AppData\Local\Temp\sg2k."
  1303                           	line	#
  1304                           psect cinit,class=CODE,delta=2
  1305                           global start_initialization
  1306                           start_initialization:
  1307  0009                     
  1308                           global __initialization
  1309                           __initialization:
  1310  0009                     psect	bssBANK0,class=BANK0,space=1,noexec
  1311                           global __pbssBANK0
  1312                           __pbssBANK0:
  1313  0060                     _nout:
  1314  0060                            ds      2
  1315  0060                     
  1316                           _width:
  1317  0062                            ds      2
  1318  0062                     
  1319                           _prec:
  1320  0064                            ds      2
  1321  0064                     
  1322                           _flags:
  1323  0066                            ds      2
  1324  0066                     
  1325                           psect	bssBANK1,class=BANK1,space=1,noexec
  1326                           global __pbssBANK1
  1327                           __pbssBANK1:
  1328  00A0                     _dbuf:
  1329  00A0                            ds      32
  1330  00A0                     
  1331                           	file	"C:\Users\sleep\AppData\Local\Temp\sg2k."
  1332                           	line	#
  1333                           psect clrtext,class=CODE,delta=2
  1334                           global clear_ram0
  1335                           ;	Called with FSR0 containing the base address, and
  1336                           ;	WREG with the size to clear
  1337                           clear_ram0:
  1338  051E                     	clrwdt			;clear the watchdog before getting into this loop
  1339  051E  0064               clrloop0:
  1340  051F                     	clrf	indf0		;clear RAM location pointed to by FSR
  1341  051F  0180               	addfsr	0,1
  1342  0520  3101               	decfsz wreg		;Have we reached the end of clearing yet?
  1343  0521  0B89               	goto clrloop0	;have we reached the end yet?
  1344  0522  2D1F               	retlw	0		;all done for this memory range, return
  1345  0523  3400               ; Clear objects allocated to BANK0
  1346                           psect cinit,class=CODE,delta=2,merge=1
  1347                           	global __pbssBANK0
  1348                           	movlw	low(__pbssBANK0)
  1349  0009  3060               	movwf	fsr0l
  1350  000A  0084               	movlw	high(__pbssBANK0)
  1351  000B  3000               	movwf	fsr0h
  1352  000C  0085               	movlw	08h
  1353  000D  3008               	fcall	clear_ram0
  1354  000E  3185  251E  3180   ; Clear objects allocated to BANK1
  1355                           psect cinit,class=CODE,delta=2,merge=1
  1356                           	global __pbssBANK1
  1357                           	movlw	low(__pbssBANK1)
  1358  0011  30A0               	movwf	fsr0l
  1359  0012  0084               	movlw	high(__pbssBANK1)
  1360  0013  3000               	movwf	fsr0h
  1361  0014  0085               	movlw	020h
  1362  0015  3020               	fcall	clear_ram0
  1363  0016  3185  251E  3180   psect cinit,class=CODE,delta=2,merge=1
  1364                           global end_of_initialization,__end_of__initialization
  1365                           
  1366                           ;End of C runtime variable initialization code
  1367                           
  1368                           end_of_initialization:
  1369  0019                     __end_of__initialization:
  1370  0019                     	bcf int$flags,0 ;clear compiler interrupt flag (level 1)
  1371  0019  107E               movlb 0
  1372  001A  0020               ljmp _main	;jump to C main() function
  1373  001B  2B8F               psect	cstackCOMMON,class=COMMON,space=1,noexec
  1374                           global __pcstackCOMMON
  1375                           __pcstackCOMMON:
  1376  0070                     ?_putch:	; 1 bytes @ 0x0
  1377  0070                     ??_putch:	; 1 bytes @ 0x0
  1378  0070                     ?_isr:	; 1 bytes @ 0x0
  1379  0070                     ??_isr:	; 1 bytes @ 0x0
  1380  0070                     ?_main:	; 1 bytes @ 0x0
  1381  0070                     ?_fputc:	; 2 bytes @ 0x0
  1382  0070                     	global	?_strlen
  1383                           ?_strlen:	; 2 bytes @ 0x0
  1384  0070                     	global	?___aldiv
  1385                           ?___aldiv:	; 4 bytes @ 0x0
  1386  0070                     	global	?___almod
  1387                           ?___almod:	; 4 bytes @ 0x0
  1388  0070                     putch@c:	; 1 bytes @ 0x0
  1389  0070                     	global	fputc@c
  1390                           fputc@c:	; 2 bytes @ 0x0
  1391  0070                     	global	___aldiv@divisor
  1392                           ___aldiv@divisor:	; 4 bytes @ 0x0
  1393  0070                     	global	___almod@divisor
  1394                           ___almod@divisor:	; 4 bytes @ 0x0
  1395  0070                     	ds	2
  1396  0070                     ??_strlen:	; 1 bytes @ 0x2
  1397  0072                     	global	fputc@fp
  1398                           fputc@fp:	; 1 bytes @ 0x2
  1399  0072                     	ds	1
  1400  0072                     ??_fputc:	; 1 bytes @ 0x3
  1401  0073                     	ds	1
  1402  0073                     	global	___aldiv@dividend
  1403                           ___aldiv@dividend:	; 4 bytes @ 0x4
  1404  0074                     	global	___almod@dividend
  1405                           ___almod@dividend:	; 4 bytes @ 0x4
  1406  0074                     	ds	2
  1407  0074                     	global	strlen@a
  1408                           strlen@a:	; 1 bytes @ 0x6
  1409  0076                     	ds	1
  1410  0076                     	global	strlen@s
  1411                           strlen@s:	; 1 bytes @ 0x7
  1412  0077                     	ds	1
  1413  0077                     ??___aldiv:	; 1 bytes @ 0x8
  1414  0078                     ??___almod:	; 1 bytes @ 0x8
  1415  0078                     ?_fputs:	; 2 bytes @ 0x8
  1416  0078                     	global	fputs@fp
  1417                           fputs@fp:	; 1 bytes @ 0x8
  1418  0078                     	ds	1
  1419  0078                     ??_fputs:	; 1 bytes @ 0x9
  1420  0079                     	global	___almod@counter
  1421                           ___almod@counter:	; 1 bytes @ 0x9
  1422  0079                     	ds	1
  1423  0079                     	global	___almod@sign
  1424                           ___almod@sign:	; 1 bytes @ 0xA
  1425  007A                     	ds	1
  1426  007A                     	global	?_abs
  1427                           ?_abs:	; 2 bytes @ 0xB
  1428  007B                     	global	abs@a
  1429                           abs@a:	; 2 bytes @ 0xB
  1430  007B                     	ds	1
  1431  007B                     ??_pad:	; 1 bytes @ 0xC
  1432  007C                     	ds	1
  1433  007C                     ??_printf:	; 1 bytes @ 0xD
  1434  007D                     	ds	1
  1435  007D                     psect	cstackBANK0,class=BANK0,space=1,noexec
  1436                           global __pcstackBANK0
  1437                           __pcstackBANK0:
  1438  0020                     ??_abs:	; 1 bytes @ 0x0
  1439  0020                     	global	___aldiv@counter
  1440                           ___aldiv@counter:	; 1 bytes @ 0x0
  1441  0020                     	global	fputs@c
  1442                           fputs@c:	; 1 bytes @ 0x0
  1443  0020                     	ds	1
  1444  0020                     	global	___aldiv@sign
  1445                           ___aldiv@sign:	; 1 bytes @ 0x1
  1446  0021                     	global	fputs@i
  1447                           fputs@i:	; 2 bytes @ 0x1
  1448  0021                     	ds	1
  1449  0021                     	global	___aldiv@quotient
  1450                           ___aldiv@quotient:	; 4 bytes @ 0x2
  1451  0022                     	ds	1
  1452  0022                     	global	fputs@s
  1453                           fputs@s:	; 1 bytes @ 0x3
  1454  0023                     	ds	1
  1455  0023                     	global	?_pad
  1456                           ?_pad:	; 2 bytes @ 0x4
  1457  0024                     	global	pad@buf
  1458                           pad@buf:	; 1 bytes @ 0x4
  1459  0024                     	ds	1
  1460  0024                     	global	pad@p
  1461                           pad@p:	; 2 bytes @ 0x5
  1462  0025                     	ds	2
  1463  0025                     	global	pad@i
  1464                           pad@i:	; 2 bytes @ 0x7
  1465  0027                     	ds	2
  1466  0027                     	global	pad@w
  1467                           pad@w:	; 2 bytes @ 0x9
  1468  0029                     	ds	2
  1469  0029                     	global	pad@fp
  1470                           pad@fp:	; 1 bytes @ 0xB
  1471  002B                     	ds	1
  1472  002B                     	global	?_dtoa
  1473                           ?_dtoa:	; 2 bytes @ 0xC
  1474  002C                     	global	dtoa@d
  1475                           dtoa@d:	; 4 bytes @ 0xC
  1476  002C                     	ds	4
  1477  002C                     ??_dtoa:	; 1 bytes @ 0x10
  1478  0030                     	ds	2
  1479  0030                     	global	_dtoa$235
  1480                           _dtoa$235:	; 2 bytes @ 0x12
  1481  0032                     	ds	2
  1482  0032                     	global	dtoa@p
  1483                           dtoa@p:	; 2 bytes @ 0x14
  1484  0034                     	ds	2
  1485  0034                     	global	dtoa@fp
  1486                           dtoa@fp:	; 1 bytes @ 0x16
  1487  0036                     	ds	1
  1488  0036                     	global	dtoa@w
  1489                           dtoa@w:	; 2 bytes @ 0x17
  1490  0037                     	ds	2
  1491  0037                     	global	dtoa@s
  1492                           dtoa@s:	; 2 bytes @ 0x19
  1493  0039                     	ds	2
  1494  0039                     	global	dtoa@n
  1495                           dtoa@n:	; 4 bytes @ 0x1B
  1496  003B                     	ds	4
  1497  003B                     	global	dtoa@i
  1498                           dtoa@i:	; 2 bytes @ 0x1F
  1499  003F                     	ds	2
  1500  003F                     	global	?_vfpfcnvrt
  1501                           ?_vfpfcnvrt:	; 2 bytes @ 0x21
  1502  0041                     	global	vfpfcnvrt@fmt
  1503                           vfpfcnvrt@fmt:	; 1 bytes @ 0x21
  1504  0041                     	ds	1
  1505  0041                     	global	vfpfcnvrt@ap
  1506                           vfpfcnvrt@ap:	; 1 bytes @ 0x22
  1507  0042                     	ds	1
  1508  0042                     ??_vfpfcnvrt:	; 1 bytes @ 0x23
  1509  0043                     	ds	5
  1510  0043                     	global	vfpfcnvrt@ll
  1511                           vfpfcnvrt@ll:	; 4 bytes @ 0x28
  1512  0048                     	ds	4
  1513  0048                     	global	vfpfcnvrt@fp
  1514                           vfpfcnvrt@fp:	; 1 bytes @ 0x2C
  1515  004C                     	ds	1
  1516  004C                     	global	?_vfprintf
  1517                           ?_vfprintf:	; 2 bytes @ 0x2D
  1518  004D                     	global	vfprintf@fmt
  1519                           vfprintf@fmt:	; 2 bytes @ 0x2D
  1520  004D                     	ds	2
  1521  004D                     	global	vfprintf@ap
  1522                           vfprintf@ap:	; 1 bytes @ 0x2F
  1523  004F                     	ds	1
  1524  004F                     ??_vfprintf:	; 1 bytes @ 0x30
  1525  0050                     	ds	2
  1526  0050                     	global	vfprintf@fp
  1527                           vfprintf@fp:	; 1 bytes @ 0x32
  1528  0052                     	ds	1
  1529  0052                     	global	vfprintf@cfmt
  1530                           vfprintf@cfmt:	; 2 bytes @ 0x33
  1531  0053                     	ds	2
  1532  0053                     	global	?_printf
  1533                           ?_printf:	; 2 bytes @ 0x35
  1534  0055                     	global	printf@fmt
  1535                           printf@fmt:	; 2 bytes @ 0x35
  1536  0055                     	ds	6
  1537  0055                     	global	printf@ret
  1538                           printf@ret:	; 2 bytes @ 0x3B
  1539  005B                     	ds	2
  1540  005B                     	global	printf@ap
  1541                           printf@ap:	; 1 bytes @ 0x3D
  1542  005D                     	ds	1
  1543  005D                     ??_main:	; 1 bytes @ 0x3E
  1544  005E                     	ds	2
  1545  005E                     ;!
  1546                           ;!Data Sizes:
  1547                           ;!    Strings     81
  1548                           ;!    Constant    0
  1549                           ;!    Data        0
  1550                           ;!    BSS         40
  1551                           ;!    Persistent  0
  1552                           ;!    Stack       0
  1553                           ;!
  1554                           ;!Auto Spaces:
  1555                           ;!    Space          Size  Autos    Used
  1556                           ;!    COMMON           14     14      14
  1557                           ;!    BANK0            80     64      72
  1558                           ;!    BANK1            80      0      32
  1559                           ;!    BANK2            80      0       0
  1560                           
  1561                           ;!
  1562                           ;!Pointer List with Targets:
  1563                           ;!
  1564                           ;!    strlen@s	PTR const unsigned char  size(1) Largest target is 32
  1565                           ;!		 -> dbuf(BANK1[32]), 
  1566                           ;!
  1567                           ;!    strlen@a	PTR const unsigned char  size(1) Largest target is 32
  1568                           ;!		 -> dbuf(BANK1[32]), 
  1569                           ;!
  1570                           ;!    printf@fmt	PTR const unsigned char  size(2) Largest target is 46
  1571                           ;!		 -> STR_3(CODE[11]), STR_2(CODE[46]), STR_1(CODE[24]), 
  1572                           ;!
  1573                           ;!    printf@ap	PTR void [1] size(1) Largest target is 2
  1574                           ;!		 -> ?_printf(BANK0[2]), 
  1575                           ;!
  1576                           ;!    fputs@s	PTR const unsigned char  size(1) Largest target is 32
  1577                           ;!		 -> dbuf(BANK1[32]), 
  1578                           ;!
  1579                           ;!    fputs@fp	PTR struct _IO_FILE size(1) Largest target is 0
  1580                           ;!		 -> NULL(NULL[0]), 
  1581                           ;!
  1582                           ;!    S529_IO_FILE$buffer	PTR unsigned char  size(1) Largest target is 0
  1583                           ;!
  1584                           ;!    fputc@fp.buffer	PTR unsigned char  size(1) Largest target is 0
  1585                           ;!
  1586                           ;!    fputc@fp	PTR struct _IO_FILE size(1) Largest target is 0
  1587                           ;!		 -> NULL(NULL[0]), 
  1588                           ;!
  1589                           ;!    vfprintf@ap	PTR PTR void  size(1) Largest target is 1
  1590                           ;!		 -> printf@ap(BANK0[1]), 
  1591                           ;!
  1592                           ;!    vfprintf@fp	PTR struct _IO_FILE size(1) Largest target is 0
  1593                           ;!		 -> NULL(NULL[0]), 
  1594                           ;!
  1595                           ;!    vfprintf@fmt	PTR const unsigned char  size(2) Largest target is 46
  1596                           ;!		 -> STR_3(CODE[11]), STR_2(CODE[46]), STR_1(CODE[24]), 
  1597                           ;!
  1598                           ;!    vfprintf@cfmt	PTR unsigned char  size(2) Largest target is 46
  1599                           ;!		 -> STR_3(CODE[11]), STR_2(CODE[46]), STR_1(CODE[24]), 
  1600                           ;!
  1601                           ;!    vfpfcnvrt@fp	PTR struct _IO_FILE size(1) Largest target is 0
  1602                           ;!		 -> NULL(NULL[0]), 
  1603                           ;!
  1604                           ;!    vfpfcnvrt@ap	PTR PTR void  size(1) Largest target is 1
  1605                           ;!		 -> printf@ap(BANK0[1]), 
  1606                           ;!
  1607                           ;!    vfpfcnvrt@fmt	PTR PTR unsigned char  size(1) Largest target is 2
  1608                           ;!		 -> vfprintf@cfmt(BANK0[2]), 
  1609                           ;!
  1610                           ;!    dtoa@fp	PTR struct _IO_FILE size(1) Largest target is 0
  1611                           ;!		 -> NULL(NULL[0]), 
  1612                           ;!
  1613                           ;!    pad@fp	PTR struct _IO_FILE size(1) Largest target is 0
  1614                           ;!		 -> NULL(NULL[0]), 
  1615                           ;!
  1616                           ;!    pad@buf	PTR unsigned char  size(1) Largest target is 32
  1617                           ;!		 -> dbuf(BANK1[32]), 
  1618                           ;!
  1619                           
  1620                           
  1621                           ;!
  1622                           ;!Critical Paths under _main in COMMON
  1623                           ;!
  1624                           ;!    _main->_printf
  1625                           ;!    _dtoa->_abs
  1626                           ;!    _dtoa->_pad
  1627                           ;!    _pad->_fputs
  1628                           ;!    _fputs->_fputc
  1629                           ;!    _abs->___almod
  1630                           ;!
  1631                           ;!Critical Paths under _isr in COMMON
  1632                           ;!
  1633                           ;!    None.
  1634                           ;!
  1635                           ;!Critical Paths under _main in BANK0
  1636                           ;!
  1637                           ;!    _main->_printf
  1638                           ;!    _printf->_vfprintf
  1639                           ;!    _vfprintf->_vfpfcnvrt
  1640                           ;!    _vfpfcnvrt->_dtoa
  1641                           ;!    _dtoa->_pad
  1642                           ;!    _pad->_fputs
  1643                           ;!
  1644                           ;!Critical Paths under _isr in BANK0
  1645                           ;!
  1646                           ;!    None.
  1647                           ;!
  1648                           ;!Critical Paths under _main in BANK1
  1649                           ;!
  1650                           ;!    None.
  1651                           ;!
  1652                           ;!Critical Paths under _isr in BANK1
  1653                           ;!
  1654                           ;!    None.
  1655                           ;!
  1656                           ;!Critical Paths under _main in BANK2
  1657                           ;!
  1658                           ;!    None.
  1659                           ;!
  1660                           ;!Critical Paths under _isr in BANK2
  1661                           ;!
  1662                           ;!    None.
  1663                           
  1664 ;;
  1665 ;;Main: autosize = 0, tempsize = 2, incstack = 0, save=0
  1666 ;;
  1667                           
  1668                           ;!
  1669                           ;!Call Graph Tables:
  1670                           ;!
  1671                           ;! ---------------------------------------------------------------------------------
  1672                           ;! (Depth) Function   	        Calls       Base Space   Used Autos Params    Refs
  1673                           ;! ---------------------------------------------------------------------------------
  1674                           ;! (0) _main                                                 2     2      0    5956
  1675                           ;!                                             62 BANK0      2     2      0
  1676                           ;!                             _printf
  1677                           ;! ---------------------------------------------------------------------------------
  1678                           ;! (1) _printf                                              10     4      6    5956
  1679                           ;!                                             13 COMMON     1     1      0
  1680                           ;!                                             53 BANK0      9     3      6
  1681                           ;!                           _vfprintf
  1682                           ;! ---------------------------------------------------------------------------------
  1683                           ;! (2) _vfprintf                                             8     5      3    5674
  1684                           ;!                                             45 BANK0      8     5      3
  1685                           ;!                          _vfpfcnvrt
  1686                           ;! ---------------------------------------------------------------------------------
  1687                           ;! (3) _vfpfcnvrt                                           32    30      2    5346
  1688                           ;!                                             33 BANK0     12    10      2
  1689                           ;!                               _dtoa
  1690                           ;!                              _fputc
  1691                           ;! ---------------------------------------------------------------------------------
  1692                           ;! (4) _dtoa                                                21    17      4    4045
  1693                           ;!                                             12 BANK0     21    17      4
  1694                           ;!                            ___aldiv
  1695                           ;!                            ___almod
  1696                           ;!                                _abs
  1697                           ;!                                _pad
  1698                           ;! ---------------------------------------------------------------------------------
  1699                           ;! (5) _pad                                                  9     6      3    2422
  1700                           ;!                                             12 COMMON     1     1      0
  1701                           ;!                                              4 BANK0      8     5      3
  1702                           ;!                              _fputc
  1703                           ;!                              _fputs
  1704                           ;!                             _strlen
  1705                           ;! ---------------------------------------------------------------------------------
  1706                           ;! (6) _strlen                                               8     6      2     123
  1707                           ;!                                              0 COMMON     8     6      2
  1708                           ;! ---------------------------------------------------------------------------------
  1709                           ;! (6) _fputs                                                8     7      1    1083
  1710                           ;!                                              8 COMMON     4     3      1
  1711                           ;!                                              0 BANK0      4     4      0
  1712                           ;!                              _fputc
  1713                           ;! ---------------------------------------------------------------------------------
  1714                           ;! (4) _fputc                                                8     5      3     768
  1715                           ;!                                              0 COMMON     8     5      3
  1716                           ;!                              _putch
  1717                           ;! ---------------------------------------------------------------------------------
  1718                           ;! (5) _putch                                                1     1      0       0
  1719                           ;! ---------------------------------------------------------------------------------
  1720                           ;! (5) _abs                                                  4     2      2     142
  1721                           ;!                                             11 COMMON     2     0      2
  1722                           ;!                                              0 BANK0      2     2      0
  1723                           ;!                            ___almod (ARG)
  1724                           ;! ---------------------------------------------------------------------------------
  1725                           ;! (5) ___almod                                             11     3      8     448
  1726                           ;!                                              0 COMMON    11     3      8
  1727                           ;! ---------------------------------------------------------------------------------
  1728                           ;! (5) ___aldiv                                             15     7      8     452
  1729                           ;!                                              0 COMMON     9     1      8
  1730                           ;!                                              0 BANK0      6     6      0
  1731                           ;! ---------------------------------------------------------------------------------
  1732                           ;! Estimated maximum stack depth 6
  1733                           ;! ---------------------------------------------------------------------------------
  1734                           ;! (Depth) Function   	        Calls       Base Space   Used Autos Params    Refs
  1735                           ;! ---------------------------------------------------------------------------------
  1736                           ;! (9) _isr                                                  0     0      0       0
  1737                           ;! ---------------------------------------------------------------------------------
  1738                           ;! Estimated maximum stack depth 9
  1739                           ;! ---------------------------------------------------------------------------------
  1740                           ;!
  1741                           ;! Call Graph Graphs:
  1742                           ;!
  1743                           ;! _main (ROOT)
  1744                           ;!   _printf
  1745                           ;!     _vfprintf
  1746                           ;!       _vfpfcnvrt
  1747                           ;!         _dtoa
  1748                           ;!           ___aldiv
  1749                           ;!           ___almod
  1750                           ;!           _abs
  1751                           ;!             ___almod (ARG)
  1752                           ;!           _pad
  1753                           ;!             _fputc
  1754                           ;!               _putch
  1755                           ;!             _fputs
  1756                           ;!               _fputc
  1757                           ;!                 _putch
  1758                           ;!             _strlen
  1759                           ;!         _fputc
  1760                           ;!           _putch
  1761                           ;!
  1762                           ;! _isr (ROOT)
  1763                           ;!
  1764                           
  1765                           ;! Address spaces:
  1766                           
  1767                           ;!Name               Size   Autos  Total    Cost      Usage
  1768                           ;!BIGRAM              F0      0       0       0        0.0%
  1769                           ;!EEDATA             100      0       0       0        0.0%
  1770                           ;!NULL                 0      0       0       0        0.0%
  1771                           ;!CODE                 0      0       0       0        0.0%
  1772                           ;!BITCOMMON            E      0       0       1        0.0%
  1773                           ;!BITSFR0              0      0       0       1        0.0%
  1774                           ;!SFR0                 0      0       0       1        0.0%
  1775                           ;!COMMON               E      E       E       2      100.0%
  1776                           ;!BITSFR1              0      0       0       2        0.0%
  1777                           ;!SFR1                 0      0       0       2        0.0%
  1778                           ;!BITSFR2              0      0       0       3        0.0%
  1779                           ;!SFR2                 0      0       0       3        0.0%
  1780                           ;!STACK                0      0       0       3        0.0%
  1781                           ;!BITSFR3              0      0       0       4        0.0%
  1782                           ;!SFR3                 0      0       0       4        0.0%
  1783                           ;!ABS                  0      0      76       4        0.0%
  1784                           ;!BITBANK0            50      0       0       5        0.0%
  1785                           ;!BITSFR4              0      0       0       5        0.0%
  1786                           ;!SFR4                 0      0       0       5        0.0%
  1787                           ;!BANK0               50     40      48       6       90.0%
  1788                           ;!BITSFR5              0      0       0       6        0.0%
  1789                           ;!SFR5                 0      0       0       6        0.0%
  1790                           ;!BITBANK1            50      0       0       7        0.0%
  1791                           ;!BITSFR6              0      0       0       7        0.0%
  1792                           ;!SFR6                 0      0       0       7        0.0%
  1793                           ;!BANK1               50      0      20       8       40.0%
  1794                           ;!BITSFR7              0      0       0       8        0.0%
  1795                           ;!SFR7                 0      0       0       8        0.0%
  1796                           ;!BITBANK2            50      0       0       9        0.0%
  1797                           ;!BITSFR8              0      0       0       9        0.0%
  1798                           ;!SFR8                 0      0       0       9        0.0%
  1799                           ;!BANK2               50      0       0      10        0.0%
  1800                           ;!BITSFR9              0      0       0      10        0.0%
  1801                           ;!SFR9                 0      0       0      10        0.0%
  1802                           ;!BITSFR10             0      0       0      11        0.0%
  1803                           ;!SFR10                0      0       0      11        0.0%
  1804                           ;!DATA                 0      0      76      11        0.0%
  1805                           ;!BITSFR11             0      0       0      12        0.0%
  1806                           ;!SFR11                0      0       0      12        0.0%
  1807                           ;!BITSFR12             0      0       0      13        0.0%
  1808                           ;!SFR12                0      0       0      13        0.0%
  1809                           ;!BITSFR13             0      0       0      14        0.0%
  1810                           ;!SFR13                0      0       0      14        0.0%
  1811                           ;!BITSFR14             0      0       0      15        0.0%
  1812                           ;!SFR14                0      0       0      15        0.0%
  1813                           ;!BITSFR15             0      0       0      16        0.0%
  1814                           ;!SFR15                0      0       0      16        0.0%
  1815                           ;!BITSFR16             0      0       0      17        0.0%
  1816                           ;!SFR16                0      0       0      17        0.0%
  1817                           ;!BITSFR17             0      0       0      18        0.0%
  1818                           ;!SFR17                0      0       0      18        0.0%
  1819                           ;!BITSFR18             0      0       0      19        0.0%
  1820                           ;!SFR18                0      0       0      19        0.0%
  1821                           ;!BITSFR19             0      0       0      20        0.0%
  1822                           ;!SFR19                0      0       0      20        0.0%
  1823                           ;!BITSFR20             0      0       0      21        0.0%
  1824                           ;!SFR20                0      0       0      21        0.0%
  1825                           ;!BITSFR21             0      0       0      22        0.0%
  1826                           ;!SFR21                0      0       0      22        0.0%
  1827                           ;!BITSFR22             0      0       0      23        0.0%
  1828                           ;!SFR22                0      0       0      23        0.0%
  1829                           ;!BITSFR23             0      0       0      24        0.0%
  1830                           ;!SFR23                0      0       0      24        0.0%
  1831                           ;!BITSFR24             0      0       0      25        0.0%
  1832                           ;!SFR24                0      0       0      25        0.0%
  1833                           ;!BITSFR25             0      0       0      26        0.0%
  1834                           ;!SFR25                0      0       0      26        0.0%
  1835                           ;!BITSFR26             0      0       0      27        0.0%
  1836                           ;!SFR26                0      0       0      27        0.0%
  1837                           ;!BITSFR27             0      0       0      28        0.0%
  1838                           ;!SFR27                0      0       0      28        0.0%
  1839                           ;!BITSFR28             0      0       0      29        0.0%
  1840                           ;!SFR28                0      0       0      29        0.0%
  1841                           ;!BITSFR29             0      0       0      30        0.0%
  1842                           ;!SFR29                0      0       0      30        0.0%
  1843                           ;!BITSFR30             0      0       0      31        0.0%
  1844                           ;!SFR30                0      0       0      31        0.0%
  1845                           ;!BITSFR31             0      0       0      32        0.0%
  1846                           ;!SFR31                0      0       0      32        0.0%
  1847                           
  1848                           	global	_main
  1849                           
  1850 ;; *************** function _main *****************
  1851 ;; Defined at:
  1852 ;;		line 23 in file "PTSymmetryController.c"
  1853 ;; Parameters:    Size  Location     Type
  1854 ;;		None
  1855 ;; Auto vars:     Size  Location     Type
  1856 ;;		None
  1857 ;; Return value:  Size  Location     Type
  1858 ;;                  1    wreg      void 
  1859 ;; Registers used:
  1860 ;;		wreg, fsr0l, fsr0h, fsr1l, fsr1h, status,2, status,0, pclath, cstack
  1861 ;; Tracked objects:
  1862 ;;		On entry : B1F/0
  1863 ;;		On exit  : 0/0
  1864 ;;		Unchanged: 0/0
  1865 ;; Data sizes:     COMMON   BANK0   BANK1   BANK2
  1866 ;;      Params:         0       0       0       0
  1867 ;;      Locals:         0       0       0       0
  1868 ;;      Temps:          0       2       0       0
  1869 ;;      Totals:         0       2       0       0
  1870 ;;Total ram usage:        2 bytes
  1871 ;; Hardware stack levels required when called:    9
  1872 ;; This function calls:
  1873 ;;		_printf
  1874 ;; This function is called by:
  1875 ;;		Startup code after reset
  1876 ;; This function uses a non-reentrant model
  1877 ;;
  1878                           psect	maintext,global,class=CODE,delta=2,merge=1,split=1,group=0
  1879                           	file	"PTSymmetryController.c"
  1880                           	line	23
  1881                           global __pmaintext
  1882                           __pmaintext:	;psect for function _main
  1883  038F                     psect	maintext
  1884                           	file	"PTSymmetryController.c"
  1885                           	line	23
  1886                           	global	__size_of_main
  1887                           	__size_of_main	equ	__end_of_main-_main
  1888  0047                     	
  1889                           _main:	
  1890  038F                     ;incstack = 0
  1891                           	opt	stack 7
  1892                           ; Regs used in _main: [wreg-fsr1h+status,2+status,0+pclath+cstack]
  1893                           	line	25
  1894                           	
  1895                           l1189:	
  1896  038F                     ;PTSymmetryController.c: 25:     RA5 = 0;
  1897                           	movlb 0	; select bank0
  1898  038F  0020               	bcf	(101/8),(101)&7	;volatile
  1899  0390  128C               	line	26
  1900                           	
  1901                           l1191:	
  1902  0391                     ;PTSymmetryController.c: 26:     TRISA = 0b00011011; TRISC = 0b00000110;
  1903                           	movlw	low(01Bh)
  1904  0391  301B               	movlb 1	; select bank1
  1905  0392  0021               	movwf	(140)^080h	;volatile
  1906  0393  008C               	movlw	low(06h)
  1907  0394  3006               	movwf	(142)^080h	;volatile
  1908  0395  008E               	line	27
  1909                           	
  1910                           l1193:	
  1911  0396                     ;PTSymmetryController.c: 27:     RA5 = 1;
  1912                           	movlb 0	; select bank0
  1913  0396  0020               	bsf	(101/8),(101)&7	;volatile
  1914  0397  168C               	line	29
  1915                           	
  1916                           l1195:	
  1917  0398                     ;PTSymmetryController.c: 29:     printf("Firmware version: %d.%d", 1, 0);
  1918                           	movlw	low(((STR_1)|8000h))
  1919  0398  30E3               	movwf	(printf@fmt)
  1920  0399  00D5               	movlw	high(((STR_1)|8000h))
  1921  039A  3084               	movwf	((printf@fmt))+1
  1922  039B  00D6               	movlw	01h
  1923  039C  3001               	movwf	0+(?_printf)+02h
  1924  039D  00D7               	movlw	0
  1925  039E  3000               	movwf	(0+(?_printf)+02h)+1
  1926  039F  00D8               	movlw	0
  1927  03A0  3000               	movwf	0+(?_printf)+04h
  1928  03A1  00D9               	movwf	1+(?_printf)+04h
  1929  03A2  00DA               	fcall	_printf
  1930  03A3  3184  24FB  3183   	line	30
  1931                           	
  1932                           l1197:	
  1933  03A6                     ;PTSymmetryController.c: 30:     _delay((unsigned long)((3000)*(32000000/4000.0)));
  1934                           	opt asmopt_push
  1935                           opt asmopt_off
  1936                           movlw  122
  1937  03A6  307A               	movlb 0	; select bank0
  1938  03A7  0020               movwf	((??_main+0)+0+1),f
  1939  03A8  00DF               movlw	193
  1940  03A9  30C1               movwf	((??_main+0)+0),f
  1941  03AA  00DE               	movlw	129
  1942  03AB  3081               u1057:
  1943  03AC                     decfsz	wreg
  1944  03AC  0B89               	goto	u1057
  1945  03AD  2BAC               	decfsz	((??_main+0)+0),f
  1946  03AE  0BDE               	goto	u1057
  1947  03AF  2BAC               	decfsz	((??_main+0)+0+1),f
  1948  03B0  0BDF               	goto	u1057
  1949  03B1  2BAC               	nop2
  1950  03B2  3200               opt asmopt_pop
  1951                           
  1952                           	line	31
  1953                           ;PTSymmetryController.c: 31:     printf("Set the pendulums in motion, then press Start")
                                 ;
  1954                           	movlw	low(((STR_2)|8000h))
  1955  03B3  301A               	movlb 0	; select bank0
  1956  03B4  0020               	movwf	(printf@fmt)
  1957  03B5  00D5               	movlw	high(((STR_2)|8000h))
  1958  03B6  3084               	movwf	((printf@fmt))+1
  1959  03B7  00D6               	fcall	_printf
  1960  03B8  3184  24FB  3183   	line	33
  1961                           ;PTSymmetryController.c: 33:     while(RA4);
  1962                           	goto	l26
  1963  03BB  2BBC               	
  1964                           l27:	
  1965  03BC                     	
  1966                           l26:	
  1967  03BC                     	movlb 0	; select bank0
  1968  03BC  0020               	btfsc	(100/8),(100)&7	;volatile
  1969  03BD  1A0C               	goto	u1031
  1970  03BE  2BC0               	goto	u1030
  1971  03BF  2BC1               u1031:
  1972  03C0                     	goto	l26
  1973  03C0  2BBC               u1030:
  1974  03C1                     	
  1975                           l28:	
  1976  03C1                     	line	34
  1977                           ;PTSymmetryController.c: 34:     RA5 = 0;
  1978                           	bcf	(101/8),(101)&7	;volatile
  1979  03C1  128C               	line	35
  1980                           ;PTSymmetryController.c: 35:     while(!RA4);
  1981                           	goto	l29
  1982  03C2  2BC3               	
  1983                           l30:	
  1984  03C3                     	
  1985                           l29:	
  1986  03C3                     	btfss	(100/8),(100)&7	;volatile
  1987  03C3  1E0C               	goto	u1041
  1988  03C4  2BC6               	goto	u1040
  1989  03C5  2BC7               u1041:
  1990  03C6                     	goto	l29
  1991  03C6  2BC3               u1040:
  1992  03C7                     	
  1993                           l31:	
  1994  03C7                     	line	36
  1995                           ;PTSymmetryController.c: 36:     RA5 = 1;
  1996                           	bsf	(101/8),(101)&7	;volatile
  1997  03C7  168C               	line	37
  1998                           	
  1999                           l1199:	
  2000  03C8                     ;PTSymmetryController.c: 37:     printf("Running...");
  2001                           	movlw	low(((STR_3)|8000h))
  2002  03C8  3013               	movwf	(printf@fmt)
  2003  03C9  00D5               	movlw	high(((STR_3)|8000h))
  2004  03CA  3085               	movwf	((printf@fmt))+1
  2005  03CB  00D6               	fcall	_printf
  2006  03CC  3184  24FB  3183   	goto	l1201
  2007  03CF  2BD0               	line	39
  2008                           ;PTSymmetryController.c: 39:     while(1) {
  2009                           	
  2010                           l32:	
  2011  03D0                     	line	40
  2012                           	
  2013                           l1201:	
  2014  03D0                     ;PTSymmetryController.c: 40:         if (RC1) {
  2015                           	line	42
  2016                           ;PTSymmetryController.c: 42:         }
  2017                           	
  2018                           l33:	
  2019  03D0                     	line	43
  2020                           ;PTSymmetryController.c: 43:         if (RC2) {
  2021                           	goto	l1201
  2022  03D0  2BD0               	line	45
  2023                           ;PTSymmetryController.c: 45:         }
  2024                           	
  2025                           l34:	
  2026  03D1                     	goto	l1201
  2027  03D1  2BD0               	line	46
  2028                           ;PTSymmetryController.c: 46:     }
  2029                           	
  2030                           l35:	
  2031  03D2                     	goto	l1201
  2032  03D2  2BD0               	
  2033                           l36:	
  2034  03D3                     	line	48
  2035                           ;PTSymmetryController.c: 48:     RA5 = 0;
  2036                           	movlb 0	; select bank0
  2037  03D3  0020               	bcf	(101/8),(101)&7	;volatile
  2038  03D4  128C               	line	51
  2039                           ;PTSymmetryController.c: 50:     return;
  2040                           	
  2041                           l37:	
  2042  03D5                     	global	start
  2043                           	ljmp	start
  2044  03D5  2808               	opt stack 0
  2045                           GLOBAL	__end_of_main
  2046                           	__end_of_main:
  2047  03D6                     	signat	_main,89
  2048                           	global	_printf
  2049                           
  2050 ;; *************** function _printf *****************
  2051 ;; Defined at:
  2052 ;;		line 5 in file "C:\Program Files (x86)\Microchip\xc8\v2.00\pic\sources\c99\common\printf.c"
  2053 ;; Parameters:    Size  Location     Type
  2054 ;;  fmt             2   53[BANK0 ] PTR const unsigned char 
  2055 ;;		 -> STR_3(11), STR_2(46), STR_1(24), 
  2056 ;; Auto vars:     Size  Location     Type
  2057 ;;  ret             2   59[BANK0 ] int 
  2058 ;;  ap              1   61[BANK0 ] PTR void [1]
  2059 ;;		 -> ?_printf(2), 
  2060 ;; Return value:  Size  Location     Type
  2061 ;;                  2   53[BANK0 ] int 
  2062 ;; Registers used:
  2063 ;;		wreg, fsr0l, fsr0h, fsr1l, fsr1h, status,2, status,0, pclath, cstack
  2064 ;; Tracked objects:
  2065 ;;		On entry : 0/0
  2066 ;;		On exit  : 0/0
  2067 ;;		Unchanged: 0/0
  2068 ;; Data sizes:     COMMON   BANK0   BANK1   BANK2
  2069 ;;      Params:         0       6       0       0
  2070 ;;      Locals:         0       3       0       0
  2071 ;;      Temps:          1       0       0       0
  2072 ;;      Totals:         1       9       0       0
  2073 ;;Total ram usage:       10 bytes
  2074 ;; Hardware stack levels used:    1
  2075 ;; Hardware stack levels required when called:    8
  2076 ;; This function calls:
  2077 ;;		_vfprintf
  2078 ;; This function is called by:
  2079 ;;		_main
  2080 ;; This function uses a non-reentrant model
  2081 ;;
  2082                           psect	text1,local,class=CODE,delta=2,merge=1,group=2
  2083                           	file	"C:\Program Files (x86)\Microchip\xc8\v2.00\pic\sources\c99\common\printf.c"
  2084                           	line	5
  2085                           global __ptext1
  2086                           __ptext1:	;psect for function _printf
  2087  04FB                     psect	text1
  2088                           	file	"C:\Program Files (x86)\Microchip\xc8\v2.00\pic\sources\c99\common\printf.c"
  2089                           	line	5
  2090                           	global	__size_of_printf
  2091                           	__size_of_printf	equ	__end_of_printf-_printf
  2092  0018                     	
  2093                           _printf:	
  2094  04FB                     ;incstack = 0
  2095                           	opt	stack 7
  2096                           ; Regs used in _printf: [wreg-fsr1h+status,2+status,0+pclath+cstack]
  2097                           	line	9
  2098                           	
  2099                           l1183:	
  2100  04FB                     	movlw	(low(?_printf|((0x0)<<8)+02h))&0ffh
  2101  04FB  3057               	movwf	(??_printf+0)+0
  2102  04FC  00FD               	movf	(??_printf+0)+0,w
  2103  04FD  087D               	movlb 0	; select bank0
  2104  04FE  0020               	movwf	(printf@ap)
  2105  04FF  00DD               	line	10
  2106                           	
  2107                           l1185:	
  2108  0500                     	movf	(printf@fmt+1),w
  2109  0500  0856               	movwf	(vfprintf@fmt+1)
  2110  0501  00CE               	movf	(printf@fmt),w
  2111  0502  0855               	movwf	(vfprintf@fmt)
  2112  0503  00CD               	movlw	(low(printf@ap|((0x0)<<8)))&0ffh
  2113  0504  305D               	movwf	(??_printf+0)+0
  2114  0505  00FD               	movf	(??_printf+0)+0,w
  2115  0506  087D               	movwf	(vfprintf@ap)
  2116  0507  00CF               	movlw	low(0)
  2117  0508  3000               	fcall	_vfprintf
  2118  0509  3184  2448  3184   	movlb 0	; select bank0
  2119  050C  0020               	movf	(1+(?_vfprintf)),w
  2120  050D  084E               	movwf	(printf@ret+1)
  2121  050E  00DC               	movf	(0+(?_vfprintf)),w
  2122  050F  084D               	movwf	(printf@ret)
  2123  0510  00DB               	goto	l662
  2124  0511  2D12               	line	12
  2125                           	
  2126                           l1187:	
  2127  0512                     	line	13
  2128                           ;	Return value of _printf is never used
  2129                           	
  2130                           l662:	
  2131  0512                     	return
  2132  0512  0008               	opt stack 0
  2133                           GLOBAL	__end_of_printf
  2134                           	__end_of_printf:
  2135  0513                     	signat	_printf,602
  2136                           	global	_vfprintf
  2137                           
  2138 ;; *************** function _vfprintf *****************
  2139 ;; Defined at:
  2140 ;;		line 1368 in file "C:\Program Files (x86)\Microchip\xc8\v2.00\pic\sources\c99\common\doprnt.c"
  2141 ;; Parameters:    Size  Location     Type
  2142 ;;  fp              1    wreg     PTR struct _IO_FILE
  2143 ;;		 -> NULL(0), 
  2144 ;;  fmt             2   45[BANK0 ] PTR const unsigned char 
  2145 ;;		 -> STR_3(11), STR_2(46), STR_1(24), 
  2146 ;;  ap              1   47[BANK0 ] PTR PTR void 
  2147 ;;		 -> printf@ap(1), 
  2148 ;; Auto vars:     Size  Location     Type
  2149 ;;  fp              1   50[BANK0 ] PTR struct _IO_FILE
  2150 ;;		 -> NULL(0), 
  2151 ;;  cfmt            2   51[BANK0 ] PTR unsigned char 
  2152 ;;		 -> STR_3(11), STR_2(46), STR_1(24), 
  2153 ;; Return value:  Size  Location     Type
  2154 ;;                  2   45[BANK0 ] int 
  2155 ;; Registers used:
  2156 ;;		wreg, fsr0l, fsr0h, fsr1l, fsr1h, status,2, status,0, pclath, cstack
  2157 ;; Tracked objects:
  2158 ;;		On entry : 0/0
  2159 ;;		On exit  : 0/0
  2160 ;;		Unchanged: 0/0
  2161 ;; Data sizes:     COMMON   BANK0   BANK1   BANK2
  2162 ;;      Params:         0       3       0       0
  2163 ;;      Locals:         0       3       0       0
  2164 ;;      Temps:          0       2       0       0
  2165 ;;      Totals:         0       8       0       0
  2166 ;;Total ram usage:        8 bytes
  2167 ;; Hardware stack levels used:    1
  2168 ;; Hardware stack levels required when called:    7
  2169 ;; This function calls:
  2170 ;;		_vfpfcnvrt
  2171 ;; This function is called by:
  2172 ;;		_printf
  2173 ;; This function uses a non-reentrant model
  2174 ;;
  2175                           psect	text2,local,class=CODE,delta=2,merge=1,group=0
  2176                           	file	"C:\Program Files (x86)\Microchip\xc8\v2.00\pic\sources\c99\common\doprnt.c"
  2177                           	line	1368
  2178                           global __ptext2
  2179                           __ptext2:	;psect for function _vfprintf
  2180  0448                     psect	text2
  2181                           	file	"C:\Program Files (x86)\Microchip\xc8\v2.00\pic\sources\c99\common\doprnt.c"
  2182                           	line	1368
  2183                           	global	__size_of_vfprintf
  2184                           	__size_of_vfprintf	equ	__end_of_vfprintf-_vfprintf
  2185  002B                     	
  2186                           _vfprintf:	
  2187  0448                     ;incstack = 0
  2188                           	opt	stack 7
  2189                           ; Regs used in _vfprintf: [wreg-fsr1h+status,2+status,0+pclath+cstack]
  2190                           ;vfprintf@fp stored from wreg
  2191                           	movlb 0	; select bank0
  2192  0448  0020               	movwf	(vfprintf@fp)
  2193  0449  00D2               	line	1373
  2194                           	
  2195                           l1171:	
  2196  044A                     ;C:\Program Files (x86)\Microchip\xc8\v2.00\pic\sources\c99\common\doprnt.c: 1368: int v
                                 fprintf(FILE *fp, const char *fmt, va_list ap);C:\Program Files (x86)\Microchip\xc8\v2.0
                                 0\pic\sources\c99\common\doprnt.c: 1369: {;C:\Program Files (x86)\Microchip\xc8\v2.00\pi
                                 c\sources\c99\common\doprnt.c: 1371:     char *cfmt;;C:\Program Files (x86)\Microchip\xc
                                 8\v2.00\pic\sources\c99\common\doprnt.c: 1373:     cfmt = (char *)fmt;
  2197                           	movf	(vfprintf@fmt+1),w
  2198  044A  084E               	movwf	(vfprintf@cfmt+1)
  2199  044B  00D4               	movf	(vfprintf@fmt),w
  2200  044C  084D               	movwf	(vfprintf@cfmt)
  2201  044D  00D3               	line	1374
  2202                           	
  2203                           l1173:	
  2204  044E                     ;C:\Program Files (x86)\Microchip\xc8\v2.00\pic\sources\c99\common\doprnt.c: 1374:     n
                                 out = 0;
  2205                           	clrf	(_nout)
  2206  044E  01E0               	clrf	(_nout+1)
  2207  044F  01E1               	line	1375
  2208                           ;C:\Program Files (x86)\Microchip\xc8\v2.00\pic\sources\c99\common\doprnt.c: 1375:     w
                                 hile (*cfmt) {
  2209                           	goto	l1177
  2210  0450  2C63               	
  2211                           l191:	
  2212  0451                     	line	1376
  2213                           	
  2214                           l1175:	
  2215  0451                     ;C:\Program Files (x86)\Microchip\xc8\v2.00\pic\sources\c99\common\doprnt.c: 1376:      
                                    nout += vfpfcnvrt(fp, &cfmt, ap);
  2216                           	movlw	(low(vfprintf@cfmt|((0x0)<<8)))&0ffh
  2217  0451  3053               	movwf	(??_vfprintf+0)+0
  2218  0452  00D0               	movf	(??_vfprintf+0)+0,w
  2219  0453  0850               	movwf	(vfpfcnvrt@fmt)
  2220  0454  00C1               	movf	(vfprintf@ap),w
  2221  0455  084F               	movwf	(??_vfprintf+1)+0
  2222  0456  00D1               	movf	(??_vfprintf+1)+0,w
  2223  0457  0851               	movwf	(vfpfcnvrt@ap)
  2224  0458  00C2               	movf	(vfprintf@fp),w
  2225  0459  0852               	fcall	_vfpfcnvrt
  2226  045A  3181  2144  3184   	movlb 0	; select bank0
  2227  045D  0020               	movf	(0+(?_vfpfcnvrt)),w
  2228  045E  0841               	addwf	(_nout),f
  2229  045F  07E0               	movf	(1+(?_vfpfcnvrt)),w
  2230  0460  0842               	addwfc	(_nout+1),f
  2231  0461  3DE1               	goto	l1177
  2232  0462  2C63               	line	1377
  2233                           ;C:\Program Files (x86)\Microchip\xc8\v2.00\pic\sources\c99\common\doprnt.c: 1377:     }
                                 
  2234                           	
  2235                           l190:	
  2236  0463                     	line	1375
  2237                           	
  2238                           l1177:	
  2239  0463                     ;C:\Program Files (x86)\Microchip\xc8\v2.00\pic\sources\c99\common\doprnt.c: 1375:     w
                                 hile (*cfmt) {
  2240                           	movf	(vfprintf@cfmt),w
  2241  0463  0853               	movwf	fsr0l
  2242  0464  0084               	movf	((vfprintf@cfmt+1)),w
  2243  0465  0854               	movwf	fsr0h
  2244  0466  0085               	moviw	fsr0++
  2245  0467  0012               	btfss	status,2
  2246  0468  1D03               	goto	u1021
  2247  0469  2C6B               	goto	u1020
  2248  046A  2C6C               u1021:
  2249  046B                     	goto	l1175
  2250  046B  2C51               u1020:
  2251  046C                     	goto	l1179
  2252  046C  2C6D               	
  2253                           l192:	
  2254  046D                     	line	1378
  2255                           	
  2256                           l1179:	
  2257  046D                     ;C:\Program Files (x86)\Microchip\xc8\v2.00\pic\sources\c99\common\doprnt.c: 1378:     r
                                 eturn nout;
  2258                           	movf	(_nout+1),w
  2259  046D  0861               	movwf	(?_vfprintf+1)
  2260  046E  00CE               	movf	(_nout),w
  2261  046F  0860               	movwf	(?_vfprintf)
  2262  0470  00CD               	goto	l193
  2263  0471  2C72               	
  2264                           l1181:	
  2265  0472                     	line	1382
  2266                           	
  2267                           l193:	
  2268  0472                     	return
  2269  0472  0008               	opt stack 0
  2270                           GLOBAL	__end_of_vfprintf
  2271                           	__end_of_vfprintf:
  2272  0473                     	signat	_vfprintf,12410
  2273                           	global	_vfpfcnvrt
  2274                           
  2275 ;; *************** function _vfpfcnvrt *****************
  2276 ;; Defined at:
  2277 ;;		line 670 in file "C:\Program Files (x86)\Microchip\xc8\v2.00\pic\sources\c99\common\doprnt.c"
  2278 ;; Parameters:    Size  Location     Type
  2279 ;;  fp              1    wreg     PTR struct _IO_FILE
  2280 ;;		 -> NULL(0), 
  2281 ;;  fmt             1   33[BANK0 ] PTR PTR unsigned char 
  2282 ;;		 -> vfprintf@cfmt(2), 
  2283 ;;  ap              1   34[BANK0 ] PTR PTR void 
  2284 ;;		 -> printf@ap(1), 
  2285 ;; Auto vars:     Size  Location     Type
  2286 ;;  fp              1   44[BANK0 ] PTR struct _IO_FILE
  2287 ;;		 -> NULL(0), 
  2288 ;;  ll              4   40[BANK0 ] long 
  2289 ;;  f               4    0        long 
  2290 ;;  llu             4    0        unsigned long 
  2291 ;;  ct              3    0        unsigned char [3]
  2292 ;;  vp              2    0        PTR void 
  2293 ;;  i               2    0        int 
  2294 ;;  done            2    0        int 
  2295 ;;  cp              2    0        PTR unsigned char 
  2296 ;;  c               1    0        unsigned char 
  2297 ;; Return value:  Size  Location     Type
  2298 ;;                  2   33[BANK0 ] int 
  2299 ;; Registers used:
  2300 ;;		wreg, fsr0l, fsr0h, fsr1l, fsr1h, status,2, status,0, pclath, cstack
  2301 ;; Tracked objects:
  2302 ;;		On entry : 0/0
  2303 ;;		On exit  : 0/0
  2304 ;;		Unchanged: 0/0
  2305 ;; Data sizes:     COMMON   BANK0   BANK1   BANK2
  2306 ;;      Params:         0       2       0       0
  2307 ;;      Locals:         0       5       0       0
  2308 ;;      Temps:          0       5       0       0
  2309 ;;      Totals:         0      12       0       0
  2310 ;;Total ram usage:       12 bytes
  2311 ;; Hardware stack levels used:    1
  2312 ;; Hardware stack levels required when called:    6
  2313 ;; This function calls:
  2314 ;;		_dtoa
  2315 ;;		_fputc
  2316 ;; This function is called by:
  2317 ;;		_vfprintf
  2318 ;; This function uses a non-reentrant model
  2319 ;;
  2320                           psect	text3,local,class=CODE,delta=2,merge=1,group=0
  2321                           	line	670
  2322                           global __ptext3
  2323                           __ptext3:	;psect for function _vfpfcnvrt
  2324  0144                     psect	text3
  2325                           	file	"C:\Program Files (x86)\Microchip\xc8\v2.00\pic\sources\c99\common\doprnt.c"
  2326                           	line	670
  2327                           	global	__size_of_vfpfcnvrt
  2328                           	__size_of_vfpfcnvrt	equ	__end_of_vfpfcnvrt-_vfpfcnvrt
  2329  00D5                     	
  2330                           _vfpfcnvrt:	
  2331  0144                     ;incstack = 0
  2332                           	opt	stack 7
  2333                           ; Regs used in _vfpfcnvrt: [wreg-fsr1h+status,2+status,0+pclath+cstack]
  2334                           ;vfpfcnvrt@fp stored from wreg
  2335                           	movlb 0	; select bank0
  2336  0144  0020               	movwf	(vfpfcnvrt@fp)
  2337  0145  00CC               	line	680
  2338                           	
  2339                           l1127:	
  2340  0146                     ;C:\Program Files (x86)\Microchip\xc8\v2.00\pic\sources\c99\common\doprnt.c: 670: static
                                  int vfpfcnvrt(FILE *fp, char *fmt[], va_list ap);C:\Program Files (x86)\Microchip\xc8\v
                                 2.00\pic\sources\c99\common\doprnt.c: 671: {;C:\Program Files (x86)\Microchip\xc8\v2.00\
                                 pic\sources\c99\common\doprnt.c: 672:     char c, *cp, ct[3];;C:\Program Files (x86)\Mic
                                 rochip\xc8\v2.00\pic\sources\c99\common\doprnt.c: 673:     int done, i;;C:\Program Files
                                  (x86)\Microchip\xc8\v2.00\pic\sources\c99\common\doprnt.c: 674:     long long ll;
  2341                           	movf	(vfpfcnvrt@fmt),w
  2342  0146  0841               	movwf	fsr1l
  2343  0147  0086               	clrf fsr1h	
  2344  0148  0187               	
  2345                           	moviw	[0]fsr1
  2346  0149  3F40               	movwf	(??_vfpfcnvrt+0)+0
  2347  014A  00C3               	moviw	[1]fsr1
  2348  014B  3F41               	movwf	(??_vfpfcnvrt+0)+0+1
  2349  014C  00C4               	movf	0+(??_vfpfcnvrt+0)+0,w
  2350  014D  0843               	movwf	fsr0l
  2351  014E  0084               	movf	(1+(??_vfpfcnvrt+0)+0),w
  2352  014F  0844               	movwf	fsr0h
  2353  0150  0085               	moviw	fsr0++
  2354  0151  0012               xorlw	37
  2355  0152  3A25               	btfss	status,2
  2356  0153  1D03               	goto	u981
  2357  0154  2956               	goto	u980
  2358  0155  2957               u981:
  2359  0156                     	goto	l1163
  2360  0156  29F1               u980:
  2361  0157                     	line	681
  2362                           	
  2363                           l1129:	
  2364  0157                     ;C:\Program Files (x86)\Microchip\xc8\v2.00\pic\sources\c99\common\doprnt.c: 681:       
                                   ++*fmt;
  2365                           	movf	(vfpfcnvrt@fmt),w
  2366  0157  0841               	movwf	fsr1l
  2367  0158  0086               	clrf fsr1h	
  2368  0159  0187               	
  2369                           	movlw	01h
  2370  015A  3001               	addwf	indf1,f
  2371  015B  0781               	addfsr	fsr1,1
  2372  015C  3141               	skipnc
  2373  015D  1803               	incf	indf1,f
  2374  015E  0A81               	line	683
  2375                           	
  2376                           l1131:	
  2377  015F                     ;C:\Program Files (x86)\Microchip\xc8\v2.00\pic\sources\c99\common\doprnt.c: 683:       
                                   flags = width = 0;
  2378                           	clrf	(_width)
  2379  015F  01E2               	clrf	(_width+1)
  2380  0160  01E3               	clrf	(_flags)
  2381  0161  01E6               	clrf	(_flags+1)
  2382  0162  01E7               	line	684
  2383                           	
  2384                           l1133:	
  2385  0163                     ;C:\Program Files (x86)\Microchip\xc8\v2.00\pic\sources\c99\common\doprnt.c: 684:       
                                   prec = -1;
  2386                           	movlw	0FFh
  2387  0163  30FF               	movwf	(_prec)
  2388  0164  00E4               	movlw	0FFh
  2389  0165  30FF               	movwf	((_prec))+1
  2390  0166  00E5               	line	825
  2391                           	
  2392                           l1135:	
  2393  0167                     ;C:\Program Files (x86)\Microchip\xc8\v2.00\pic\sources\c99\common\doprnt.c: 825:       
                                   if ((*fmt[0] == 'd') || (*fmt[0] == 'i')) {
  2394                           	movf	(vfpfcnvrt@fmt),w
  2395  0167  0841               	movwf	fsr1l
  2396  0168  0086               	clrf fsr1h	
  2397  0169  0187               	
  2398                           	moviw	[0]fsr1
  2399  016A  3F40               	movwf	(??_vfpfcnvrt+0)+0
  2400  016B  00C3               	moviw	[1]fsr1
  2401  016C  3F41               	movwf	(??_vfpfcnvrt+0)+0+1
  2402  016D  00C4               	movf	0+(??_vfpfcnvrt+0)+0,w
  2403  016E  0843               	movwf	fsr0l
  2404  016F  0084               	movf	(1+(??_vfpfcnvrt+0)+0),w
  2405  0170  0844               	movwf	fsr0h
  2406  0171  0085               	moviw	fsr0++
  2407  0172  0012               xorlw	100
  2408  0173  3A64               	btfsc	status,2
  2409  0174  1903               	goto	u991
  2410  0175  2977               	goto	u990
  2411  0176  2978               u991:
  2412  0177                     	goto	l1139
  2413  0177  298A               u990:
  2414  0178                     	
  2415                           l1137:	
  2416  0178                     	movf	(vfpfcnvrt@fmt),w
  2417  0178  0841               	movwf	fsr1l
  2418  0179  0086               	clrf fsr1h	
  2419  017A  0187               	
  2420                           	moviw	[0]fsr1
  2421  017B  3F40               	movwf	(??_vfpfcnvrt+0)+0
  2422  017C  00C3               	moviw	[1]fsr1
  2423  017D  3F41               	movwf	(??_vfpfcnvrt+0)+0+1
  2424  017E  00C4               	movf	0+(??_vfpfcnvrt+0)+0,w
  2425  017F  0843               	movwf	fsr0l
  2426  0180  0084               	movf	(1+(??_vfpfcnvrt+0)+0),w
  2427  0181  0844               	movwf	fsr0h
  2428  0182  0085               	moviw	fsr0++
  2429  0183  0012               xorlw	105
  2430  0184  3A69               	btfss	status,2
  2431  0185  1D03               	goto	u1001
  2432  0186  2988               	goto	u1000
  2433  0187  2989               u1001:
  2434  0188                     	goto	l1147
  2435  0188  29BA               u1000:
  2436  0189                     	goto	l1139
  2437  0189  298A               	
  2438                           l185:	
  2439  018A                     	line	827
  2440                           	
  2441                           l1139:	
  2442  018A                     ;C:\Program Files (x86)\Microchip\xc8\v2.00\pic\sources\c99\common\doprnt.c: 827:       
                                       ++*fmt;
  2443                           	movf	(vfpfcnvrt@fmt),w
  2444  018A  0841               	movwf	fsr1l
  2445  018B  0086               	clrf fsr1h	
  2446  018C  0187               	
  2447                           	movlw	01h
  2448  018D  3001               	addwf	indf1,f
  2449  018E  0781               	addfsr	fsr1,1
  2450  018F  3141               	skipnc
  2451  0190  1803               	incf	indf1,f
  2452  0191  0A81               	line	828
  2453                           	
  2454                           l1141:	
  2455  0192                     ;C:\Program Files (x86)\Microchip\xc8\v2.00\pic\sources\c99\common\doprnt.c: 828:       
                                       ll = (long long)(*(int *)__va_arg(*(int **)ap, (int)0));
  2456                           	movf	(vfpfcnvrt@ap),w
  2457  0192  0842               	movwf	fsr1l
  2458  0193  0086               	clrf fsr1h	
  2459  0194  0187               	
  2460                           	movf	indf1,w
  2461  0195  0801               	movwf	fsr0l
  2462  0196  0084               	clrf fsr0h	
  2463  0197  0185               	
  2464                           	movlw	02h
  2465  0198  3002               	addwf	indf1,f
  2466  0199  0781               	moviw	[0]fsr0
  2467  019A  3F00               	movwf	(??_vfpfcnvrt+0)+0
  2468  019B  00C3               	moviw	[1]fsr0
  2469  019C  3F01               	movwf	(??_vfpfcnvrt+0)+0+1
  2470  019D  00C4               	movf	0+(??_vfpfcnvrt+0)+0,w
  2471  019E  0843               	movwf	(vfpfcnvrt@ll)
  2472  019F  00C8               	movf	1+(??_vfpfcnvrt+0)+0,w
  2473  01A0  0844               	movwf	(vfpfcnvrt@ll+1)
  2474  01A1  00C9               	rlf	wreg,f
  2475  01A2  0D89               	subwfb	wreg,f
  2476  01A3  3B89               	comf	wreg,f
  2477  01A4  0989               	movwf	(vfpfcnvrt@ll+2)
  2478  01A5  00CA               	movwf	(vfpfcnvrt@ll+3)
  2479  01A6  00CB               	line	830
  2480                           	
  2481                           l1143:	
  2482  01A7                     ;C:\Program Files (x86)\Microchip\xc8\v2.00\pic\sources\c99\common\doprnt.c: 830:       
                                       return dtoa(fp, ll);
  2483                           	movf	(vfpfcnvrt@ll+3),w
  2484  01A7  084B               	movwf	(dtoa@d+3)
  2485  01A8  00AF               	movf	(vfpfcnvrt@ll+2),w
  2486  01A9  084A               	movwf	(dtoa@d+2)
  2487  01AA  00AE               	movf	(vfpfcnvrt@ll+1),w
  2488  01AB  0849               	movwf	(dtoa@d+1)
  2489  01AC  00AD               	movf	(vfpfcnvrt@ll),w
  2490  01AD  0848               	movwf	(dtoa@d)
  2491  01AE  00AC               
  2492                           	movf	(vfpfcnvrt@fp),w
  2493  01AF  084C               	fcall	_dtoa
  2494  01B0  3180  201C  3181   	movlb 0	; select bank0
  2495  01B3  0020               	movf	(1+(?_dtoa)),w
  2496  01B4  082D               	movwf	(?_vfpfcnvrt+1)
  2497  01B5  00C2               	movf	(0+(?_dtoa)),w
  2498  01B6  082C               	movwf	(?_vfpfcnvrt)
  2499  01B7  00C1               	goto	l186
  2500  01B8  2A18               	
  2501                           l1145:	
  2502  01B9                     	goto	l186
  2503  01B9  2A18               	line	831
  2504                           ;C:\Program Files (x86)\Microchip\xc8\v2.00\pic\sources\c99\common\doprnt.c: 831:       
                                   }
  2505                           	
  2506                           l183:	
  2507  01BA                     	line	1350
  2508                           	
  2509                           l1147:	
  2510  01BA                     ;C:\Program Files (x86)\Microchip\xc8\v2.00\pic\sources\c99\common\doprnt.c: 1350:      
                                    if ((*fmt)[0] == '%') {
  2511                           	movf	(vfpfcnvrt@fmt),w
  2512  01BA  0841               	movwf	fsr1l
  2513  01BB  0086               	clrf fsr1h	
  2514  01BC  0187               	
  2515                           	moviw	[0]fsr1
  2516  01BD  3F40               	movwf	(??_vfpfcnvrt+0)+0
  2517  01BE  00C3               	moviw	[1]fsr1
  2518  01BF  3F41               	movwf	(??_vfpfcnvrt+0)+0+1
  2519  01C0  00C4               	movf	0+(??_vfpfcnvrt+0)+0,w
  2520  01C1  0843               	movwf	fsr0l
  2521  01C2  0084               	movf	(1+(??_vfpfcnvrt+0)+0),w
  2522  01C3  0844               	movwf	fsr0h
  2523  01C4  0085               	moviw	fsr0++
  2524  01C5  0012               xorlw	37
  2525  01C6  3A25               	btfss	status,2
  2526  01C7  1D03               	goto	u1011
  2527  01C8  29CA               	goto	u1010
  2528  01C9  29CB               u1011:
  2529  01CA                     	goto	l1157
  2530  01CA  29E5               u1010:
  2531  01CB                     	line	1351
  2532                           	
  2533                           l1149:	
  2534  01CB                     ;C:\Program Files (x86)\Microchip\xc8\v2.00\pic\sources\c99\common\doprnt.c: 1351:      
                                        ++*fmt;
  2535                           	movf	(vfpfcnvrt@fmt),w
  2536  01CB  0841               	movwf	fsr1l
  2537  01CC  0086               	clrf fsr1h	
  2538  01CD  0187               	
  2539                           	movlw	01h
  2540  01CE  3001               	addwf	indf1,f
  2541  01CF  0781               	addfsr	fsr1,1
  2542  01D0  3141               	skipnc
  2543  01D1  1803               	incf	indf1,f
  2544  01D2  0A81               	line	1352
  2545                           	
  2546                           l1151:	
  2547  01D3                     ;C:\Program Files (x86)\Microchip\xc8\v2.00\pic\sources\c99\common\doprnt.c: 1352:      
                                        fputc((int)'%', fp);
  2548                           	movlw	025h
  2549  01D3  3025               	movwf	(fputc@c)
  2550  01D4  00F0               	movlw	0
  2551  01D5  3000               	movwf	((fputc@c))+1
  2552  01D6  00F1               	movf	(vfpfcnvrt@fp),w
  2553  01D7  084C               	movwf	(??_vfpfcnvrt+0)+0
  2554  01D8  00C3               	movf	(??_vfpfcnvrt+0)+0,w
  2555  01D9  0843               	movwf	(fputc@fp)
  2556  01DA  00F2               	fcall	_fputc
  2557  01DB  3183  23D6  3181   	line	1353
  2558                           	
  2559                           l1153:	
  2560  01DE                     ;C:\Program Files (x86)\Microchip\xc8\v2.00\pic\sources\c99\common\doprnt.c: 1353:      
                                        return 1;
  2561                           	movlw	01h
  2562  01DE  3001               	movlb 0	; select bank0
  2563  01DF  0020               	movwf	(?_vfpfcnvrt)
  2564  01E0  00C1               	movlw	0
  2565  01E1  3000               	movwf	((?_vfpfcnvrt))+1
  2566  01E2  00C2               	goto	l186
  2567  01E3  2A18               	
  2568                           l1155:	
  2569  01E4                     	goto	l186
  2570  01E4  2A18               	line	1354
  2571                           ;C:\Program Files (x86)\Microchip\xc8\v2.00\pic\sources\c99\common\doprnt.c: 1354:      
                                    }
  2572                           	
  2573                           l187:	
  2574  01E5                     	line	1357
  2575                           	
  2576                           l1157:	
  2577  01E5                     ;C:\Program Files (x86)\Microchip\xc8\v2.00\pic\sources\c99\common\doprnt.c: 1357:      
                                    ++*fmt;
  2578                           	movf	(vfpfcnvrt@fmt),w
  2579  01E5  0841               	movwf	fsr1l
  2580  01E6  0086               	clrf fsr1h	
  2581  01E7  0187               	
  2582                           	movlw	01h
  2583  01E8  3001               	addwf	indf1,f
  2584  01E9  0781               	addfsr	fsr1,1
  2585  01EA  3141               	skipnc
  2586  01EB  1803               	incf	indf1,f
  2587  01EC  0A81               	line	1358
  2588                           	
  2589                           l1159:	
  2590  01ED                     ;C:\Program Files (x86)\Microchip\xc8\v2.00\pic\sources\c99\common\doprnt.c: 1358:      
                                    return 0;
  2591                           	clrf	(?_vfpfcnvrt)
  2592  01ED  01C1               	clrf	(?_vfpfcnvrt+1)
  2593  01EE  01C2               	goto	l186
  2594  01EF  2A18               	
  2595                           l1161:	
  2596  01F0                     	goto	l186
  2597  01F0  2A18               	line	1359
  2598                           ;C:\Program Files (x86)\Microchip\xc8\v2.00\pic\sources\c99\common\doprnt.c: 1359:     }
                                 
  2599                           	
  2600                           l182:	
  2601  01F1                     	line	1362
  2602                           	
  2603                           l1163:	
  2604  01F1                     ;C:\Program Files (x86)\Microchip\xc8\v2.00\pic\sources\c99\common\doprnt.c: 1362:     f
                                 putc((int)(*fmt)[0], fp);
  2605                           	movf	(vfpfcnvrt@fmt),w
  2606  01F1  0841               	movwf	fsr1l
  2607  01F2  0086               	clrf fsr1h	
  2608  01F3  0187               	
  2609                           	moviw	[0]fsr1
  2610  01F4  3F40               	movwf	(??_vfpfcnvrt+0)+0
  2611  01F5  00C3               	moviw	[1]fsr1
  2612  01F6  3F41               	movwf	(??_vfpfcnvrt+0)+0+1
  2613  01F7  00C4               	movf	0+(??_vfpfcnvrt+0)+0,w
  2614  01F8  0843               	movwf	fsr0l
  2615  01F9  0084               	movf	(1+(??_vfpfcnvrt+0)+0),w
  2616  01FA  0844               	movwf	fsr0h
  2617  01FB  0085               	movf	indf0,w ;code access
  2618  01FC  0800               	movwf	(??_vfpfcnvrt+2)+0
  2619  01FD  00C5               	clrf	(??_vfpfcnvrt+2)+0+1
  2620  01FE  01C6               	movf	0+(??_vfpfcnvrt+2)+0,w
  2621  01FF  0845               	movwf	(fputc@c)
  2622  0200  00F0               	movf	1+(??_vfpfcnvrt+2)+0,w
  2623  0201  0846               	movwf	(fputc@c+1)
  2624  0202  00F1               	movf	(vfpfcnvrt@fp),w
  2625  0203  084C               	movwf	(??_vfpfcnvrt+4)+0
  2626  0204  00C7               	movf	(??_vfpfcnvrt+4)+0,w
  2627  0205  0847               	movwf	(fputc@fp)
  2628  0206  00F2               	fcall	_fputc
  2629  0207  3183  23D6  3181   	line	1363
  2630                           	
  2631                           l1165:	
  2632  020A                     ;C:\Program Files (x86)\Microchip\xc8\v2.00\pic\sources\c99\common\doprnt.c: 1363:     +
                                 +*fmt;
  2633                           	movlb 0	; select bank0
  2634  020A  0020               	movf	(vfpfcnvrt@fmt),w
  2635  020B  0841               	movwf	fsr1l
  2636  020C  0086               	clrf fsr1h	
  2637  020D  0187               	
  2638                           	movlw	01h
  2639  020E  3001               	addwf	indf1,f
  2640  020F  0781               	addfsr	fsr1,1
  2641  0210  3141               	skipnc
  2642  0211  1803               	incf	indf1,f
  2643  0212  0A81               	line	1364
  2644                           	
  2645                           l1167:	
  2646  0213                     ;C:\Program Files (x86)\Microchip\xc8\v2.00\pic\sources\c99\common\doprnt.c: 1364:     r
                                 eturn 1;
  2647                           	movlw	01h
  2648  0213  3001               	movwf	(?_vfpfcnvrt)
  2649  0214  00C1               	movlw	0
  2650  0215  3000               	movwf	((?_vfpfcnvrt))+1
  2651  0216  00C2               	goto	l186
  2652  0217  2A18               	
  2653                           l1169:	
  2654  0218                     	line	1365
  2655                           	
  2656                           l186:	
  2657  0218                     	return
  2658  0218  0008               	opt stack 0
  2659                           GLOBAL	__end_of_vfpfcnvrt
  2660                           	__end_of_vfpfcnvrt:
  2661  0219                     	signat	_vfpfcnvrt,12410
  2662                           	global	_dtoa
  2663                           
  2664 ;; *************** function _dtoa *****************
  2665 ;; Defined at:
  2666 ;;		line 274 in file "C:\Program Files (x86)\Microchip\xc8\v2.00\pic\sources\c99\common\doprnt.c"
  2667 ;; Parameters:    Size  Location     Type
  2668 ;;  fp              1    wreg     PTR struct _IO_FILE
  2669 ;;		 -> NULL(0), 
  2670 ;;  d               4   12[BANK0 ] long 
  2671 ;; Auto vars:     Size  Location     Type
  2672 ;;  fp              1   22[BANK0 ] PTR struct _IO_FILE
  2673 ;;		 -> NULL(0), 
  2674 ;;  n               4   27[BANK0 ] long 
  2675 ;;  i               2   31[BANK0 ] int 
  2676 ;;  s               2   25[BANK0 ] int 
  2677 ;;  w               2   23[BANK0 ] int 
  2678 ;;  p               2   20[BANK0 ] int 
  2679 ;; Return value:  Size  Location     Type
  2680 ;;                  2   12[BANK0 ] int 
  2681 ;; Registers used:
  2682 ;;		wreg, fsr1l, fsr1h, status,2, status,0, pclath, cstack
  2683 ;; Tracked objects:
  2684 ;;		On entry : 0/0
  2685 ;;		On exit  : 0/0
  2686 ;;		Unchanged: 0/0
  2687 ;; Data sizes:     COMMON   BANK0   BANK1   BANK2
  2688 ;;      Params:         0       4       0       0
  2689 ;;      Locals:         0      15       0       0
  2690 ;;      Temps:          0       2       0       0
  2691 ;;      Totals:         0      21       0       0
  2692 ;;Total ram usage:       21 bytes
  2693 ;; Hardware stack levels used:    1
  2694 ;; Hardware stack levels required when called:    5
  2695 ;; This function calls:
  2696 ;;		___aldiv
  2697 ;;		___almod
  2698 ;;		_abs
  2699 ;;		_pad
  2700 ;; This function is called by:
  2701 ;;		_vfpfcnvrt
  2702 ;; This function uses a non-reentrant model
  2703 ;;
  2704                           psect	text4,local,class=CODE,delta=2,merge=1,group=0
  2705                           	line	274
  2706                           global __ptext4
  2707                           __ptext4:	;psect for function _dtoa
  2708  001C                     psect	text4
  2709                           	file	"C:\Program Files (x86)\Microchip\xc8\v2.00\pic\sources\c99\common\doprnt.c"
  2710                           	line	274
  2711                           	global	__size_of_dtoa
  2712                           	__size_of_dtoa	equ	__end_of_dtoa-_dtoa
  2713  0128                     	
  2714                           _dtoa:	
  2715  001C                     ;incstack = 0
  2716                           	opt	stack 7
  2717                           ; Regs used in _dtoa: [wreg+fsr1l+fsr1h+status,2+status,0+pclath+cstack]
  2718                           ;dtoa@fp stored from wreg
  2719                           	movlb 0	; select bank0
  2720  001C  0020               	movwf	(dtoa@fp)
  2721  001D  00B6               	line	280
  2722                           	
  2723                           l1069:	
  2724  001E                     ;C:\Program Files (x86)\Microchip\xc8\v2.00\pic\sources\c99\common\doprnt.c: 274: static
                                  int dtoa(FILE *fp, long long d);C:\Program Files (x86)\Microchip\xc8\v2.00\pic\sources\
                                 c99\common\doprnt.c: 275: {;C:\Program Files (x86)\Microchip\xc8\v2.00\pic\sources\c99\c
                                 ommon\doprnt.c: 276:     int i, p, s, w;;C:\Program Files (x86)\Microchip\xc8\v2.00\pic\
                                 sources\c99\common\doprnt.c: 277:     long long n;;C:\Program Files (x86)\Microchip\xc8\
                                 v2.00\pic\sources\c99\common\doprnt.c: 280:     n = d;
  2725                           	movf	(dtoa@d+3),w
  2726  001E  082F               	movwf	(dtoa@n+3)
  2727  001F  00BE               	movf	(dtoa@d+2),w
  2728  0020  082E               	movwf	(dtoa@n+2)
  2729  0021  00BD               	movf	(dtoa@d+1),w
  2730  0022  082D               	movwf	(dtoa@n+1)
  2731  0023  00BC               	movf	(dtoa@d),w
  2732  0024  082C               	movwf	(dtoa@n)
  2733  0025  00BB               
  2734                           	line	281
  2735                           ;C:\Program Files (x86)\Microchip\xc8\v2.00\pic\sources\c99\common\doprnt.c: 281:     s 
                                 = n < 0 ? 1 : 0;
  2736                           	btfsc	(dtoa@n+3),7
  2737  0026  1BBE               	goto	u831
  2738  0027  2829               	goto	u830
  2739  0028  282B               u831:
  2740  0029                     	movlw	1
  2741  0029  3001               	goto	u840
  2742  002A  282C               u830:
  2743  002B                     	movlw	0
  2744  002B  3000               u840:
  2745  002C                     	movwf	(??_dtoa+0)+0
  2746  002C  00B0               	clrf	(??_dtoa+0)+0+1
  2747  002D  01B1               	movf	0+(??_dtoa+0)+0,w
  2748  002E  0830               	movwf	(dtoa@s)
  2749  002F  00B9               	movf	1+(??_dtoa+0)+0,w
  2750  0030  0831               	movwf	(dtoa@s+1)
  2751  0031  00BA               	line	282
  2752                           	
  2753                           l1071:	
  2754  0032                     ;C:\Program Files (x86)\Microchip\xc8\v2.00\pic\sources\c99\common\doprnt.c: 282:     if
                                  (s) {
  2755                           	movf	((dtoa@s)),w
  2756  0032  0839               iorwf	((dtoa@s+1)),w
  2757  0033  043A               	btfsc	status,2
  2758  0034  1903               	goto	u851
  2759  0035  2837               	goto	u850
  2760  0036  2838               u851:
  2761  0037                     	goto	l156
  2762  0037  2843               u850:
  2763  0038                     	line	283
  2764                           	
  2765                           l1073:	
  2766  0038                     ;C:\Program Files (x86)\Microchip\xc8\v2.00\pic\sources\c99\common\doprnt.c: 283:       
                                   n = -n;
  2767                           	comf	(dtoa@n),f
  2768  0038  09BB               	comf	(dtoa@n+1),f
  2769  0039  09BC               	comf	(dtoa@n+2),f
  2770  003A  09BD               	comf	(dtoa@n+3),f
  2771  003B  09BE               	incf	(dtoa@n),f
  2772  003C  0ABB               	skipnz
  2773  003D  1903               	incf	(dtoa@n+1),f
  2774  003E  0ABC               	skipnz
  2775  003F  1903               	incf	(dtoa@n+2),f
  2776  0040  0ABD               	skipnz
  2777  0041  1903               	incf	(dtoa@n+3),f
  2778  0042  0ABE               	line	284
  2779                           ;C:\Program Files (x86)\Microchip\xc8\v2.00\pic\sources\c99\common\doprnt.c: 284:     }

  2780                           	
  2781                           l156:	
  2782  0043                     	line	287
  2783                           ;C:\Program Files (x86)\Microchip\xc8\v2.00\pic\sources\c99\common\doprnt.c: 287:     if
                                  (!(prec < 0)) {
  2784                           	btfsc	(_prec+1),7
  2785  0043  1BE5               	goto	u861
  2786  0044  2846               	goto	u860
  2787  0045  2847               u861:
  2788  0046                     	goto	l157
  2789  0046  284B               u860:
  2790  0047                     	line	288
  2791                           	
  2792                           l1075:	
  2793  0047                     ;C:\Program Files (x86)\Microchip\xc8\v2.00\pic\sources\c99\common\doprnt.c: 288:       
                                   flags &= ~(1 << 1);
  2794                           	movlw	0FDh
  2795  0047  30FD               	andwf	(_flags),f
  2796  0048  05E6               	movlw	0FFh
  2797  0049  30FF               	andwf	(_flags+1),f
  2798  004A  05E7               	line	289
  2799                           ;C:\Program Files (x86)\Microchip\xc8\v2.00\pic\sources\c99\common\doprnt.c: 289:     }

  2800                           	
  2801                           l157:	
  2802  004B                     	line	290
  2803                           ;C:\Program Files (x86)\Microchip\xc8\v2.00\pic\sources\c99\common\doprnt.c: 290:     p 
                                 = (0 < prec) ? prec : 1;
  2804                           	movf	(_prec+1),w
  2805  004B  0865               	xorlw	80h
  2806  004C  3A80               	movwf	(??_dtoa+0)+0
  2807  004D  00B0               	movlw	(0)^80h
  2808  004E  3080               	subwf	(??_dtoa+0)+0,w
  2809  004F  0230               	skipz
  2810  0050  1D03               	goto	u875
  2811  0051  2854               	movlw	01h
  2812  0052  3001               	subwf	(_prec),w
  2813  0053  0264               u875:
  2814  0054                     
  2815                           	skipnc
  2816  0054  1803               	goto	u871
  2817  0055  2857               	goto	u870
  2818  0056  2858               u871:
  2819  0057                     	goto	l1079
  2820  0057  285E               u870:
  2821  0058                     	
  2822                           l1077:	
  2823  0058                     	movlw	01h
  2824  0058  3001               	movlb 0	; select bank0
  2825  0059  0020               	movwf	(dtoa@p)
  2826  005A  00B4               	movlw	0
  2827  005B  3000               	movwf	((dtoa@p))+1
  2828  005C  00B5               	goto	l161
  2829  005D  2863               	
  2830                           l159:	
  2831  005E                     	
  2832                           l1079:	
  2833  005E                     	movlb 0	; select bank0
  2834  005E  0020               	movf	(_prec+1),w
  2835  005F  0865               	movwf	(dtoa@p+1)
  2836  0060  00B5               	movf	(_prec),w
  2837  0061  0864               	movwf	(dtoa@p)
  2838  0062  00B4               	
  2839                           l161:	
  2840  0063                     	line	291
  2841                           ;C:\Program Files (x86)\Microchip\xc8\v2.00\pic\sources\c99\common\doprnt.c: 291:     w 
                                 = width;
  2842                           	movf	(_width+1),w
  2843  0063  0863               	movwf	(dtoa@w+1)
  2844  0064  00B8               	movf	(_width),w
  2845  0065  0862               	movwf	(dtoa@w)
  2846  0066  00B7               	line	292
  2847                           	
  2848                           l1081:	
  2849  0067                     ;C:\Program Files (x86)\Microchip\xc8\v2.00\pic\sources\c99\common\doprnt.c: 292:     if
                                  (s || (flags & (1 << 2))) {
  2850                           	movf	((dtoa@s)),w
  2851  0067  0839               iorwf	((dtoa@s+1)),w
  2852  0068  043A               	btfss	status,2
  2853  0069  1D03               	goto	u881
  2854  006A  286C               	goto	u880
  2855  006B  286D               u881:
  2856  006C                     	goto	l1085
  2857  006C  2872               u880:
  2858  006D                     	
  2859                           l1083:	
  2860  006D                     	btfss	(_flags),(2)&7
  2861  006D  1D66               	goto	u891
  2862  006E  2870               	goto	u890
  2863  006F  2871               u891:
  2864  0070                     	goto	l162
  2865  0070  2876               u890:
  2866  0071                     	goto	l1085
  2867  0071  2872               	
  2868                           l164:	
  2869  0072                     	line	293
  2870                           	
  2871                           l1085:	
  2872  0072                     ;C:\Program Files (x86)\Microchip\xc8\v2.00\pic\sources\c99\common\doprnt.c: 293:       
                                   --w;
  2873                           	movlw	0FFh
  2874  0072  30FF               	addwf	(dtoa@w),f
  2875  0073  07B7               	movlw	0FFh
  2876  0074  30FF               	addwfc	(dtoa@w+1),f
  2877  0075  3DB8               	line	294
  2878                           ;C:\Program Files (x86)\Microchip\xc8\v2.00\pic\sources\c99\common\doprnt.c: 294:     }

  2879                           	
  2880                           l162:	
  2881  0076                     	line	297
  2882                           ;C:\Program Files (x86)\Microchip\xc8\v2.00\pic\sources\c99\common\doprnt.c: 297:     i 
                                 = sizeof(dbuf) - 1;
  2883                           	movlw	01Fh
  2884  0076  301F               	movwf	(dtoa@i)
  2885  0077  00BF               	movlw	0
  2886  0078  3000               	movwf	((dtoa@i))+1
  2887  0079  00C0               	line	298
  2888                           	
  2889                           l1087:	
  2890  007A                     ;C:\Program Files (x86)\Microchip\xc8\v2.00\pic\sources\c99\common\doprnt.c: 298:     db
                                 uf[i] = '\0';
  2891                           	movf	(dtoa@i),w
  2892  007A  083F               	addlw	low(_dbuf|((0x0)<<8))&0ffh
  2893  007B  3EA0               	movwf	fsr1l
  2894  007C  0086               	clrf fsr1h	
  2895  007D  0187               	
  2896                           	clrf	indf1
  2897  007E  0181               	line	299
  2898                           ;C:\Program Files (x86)\Microchip\xc8\v2.00\pic\sources\c99\common\doprnt.c: 299:     wh
                                 ile (!(i < 1) && (n || (0 < p) || ((0 < w) && (flags & (1 << 1))))) {
  2899                           	goto	l1099
  2900  007F  28CE               	
  2901                           l166:	
  2902  0080                     	line	300
  2903                           	
  2904                           l1089:	
  2905  0080                     ;C:\Program Files (x86)\Microchip\xc8\v2.00\pic\sources\c99\common\doprnt.c: 300:       
                                   --i;
  2906                           	movlw	0FFh
  2907  0080  30FF               	movlb 0	; select bank0
  2908  0081  0020               	addwf	(dtoa@i),f
  2909  0082  07BF               	movlw	0FFh
  2910  0083  30FF               	addwfc	(dtoa@i+1),f
  2911  0084  3DC0               	line	301
  2912                           	
  2913                           l1091:	
  2914  0085                     ;C:\Program Files (x86)\Microchip\xc8\v2.00\pic\sources\c99\common\doprnt.c: 301:       
                                   dbuf[i] = '0' + abs(n % 10);
  2915                           	movlw	0
  2916  0085  3000               	movwf	(___almod@divisor+3)
  2917  0086  00F3               	movlw	0
  2918  0087  3000               	movwf	(___almod@divisor+2)
  2919  0088  00F2               	movlw	0
  2920  0089  3000               	movwf	(___almod@divisor+1)
  2921  008A  00F1               	movlw	0Ah
  2922  008B  300A               	movwf	(___almod@divisor)
  2923  008C  00F0               
  2924                           	movf	(dtoa@n+3),w
  2925  008D  083E               	movwf	(___almod@dividend+3)
  2926  008E  00F7               	movf	(dtoa@n+2),w
  2927  008F  083D               	movwf	(___almod@dividend+2)
  2928  0090  00F6               	movf	(dtoa@n+1),w
  2929  0091  083C               	movwf	(___almod@dividend+1)
  2930  0092  00F5               	movf	(dtoa@n),w
  2931  0093  083B               	movwf	(___almod@dividend)
  2932  0094  00F4               
  2933                           	fcall	___almod
  2934  0095  3182  22B2  3180   	movf	(1+(?___almod)),w
  2935  0098  0871               	movwf	(abs@a+1)
  2936  0099  00FC               	movf	(0+(?___almod)),w
  2937  009A  0870               	movwf	(abs@a)
  2938  009B  00FB               	fcall	_abs
  2939  009C  3184  24C6  3180   	movf	(0+(?_abs)),w
  2940  009F  087B               	addlw	030h
  2941  00A0  3E30               	movlb 0	; select bank0
  2942  00A1  0020               	movwf	(??_dtoa+0)+0
  2943  00A2  00B0               	movf	(dtoa@i),w
  2944  00A3  083F               	addlw	low(_dbuf|((0x0)<<8))&0ffh
  2945  00A4  3EA0               	movwf	fsr1l
  2946  00A5  0086               	clrf fsr1h	
  2947  00A6  0187               	
  2948                           	movf	(??_dtoa+0)+0,w
  2949  00A7  0830               	movwf	indf1
  2950  00A8  0081               	line	302
  2951                           	
  2952                           l1093:	
  2953  00A9                     ;C:\Program Files (x86)\Microchip\xc8\v2.00\pic\sources\c99\common\doprnt.c: 302:       
                                   --p;
  2954                           	movlw	0FFh
  2955  00A9  30FF               	addwf	(dtoa@p),f
  2956  00AA  07B4               	movlw	0FFh
  2957  00AB  30FF               	addwfc	(dtoa@p+1),f
  2958  00AC  3DB5               	line	303
  2959                           	
  2960                           l1095:	
  2961  00AD                     ;C:\Program Files (x86)\Microchip\xc8\v2.00\pic\sources\c99\common\doprnt.c: 303:       
                                   --w;
  2962                           	movlw	0FFh
  2963  00AD  30FF               	addwf	(dtoa@w),f
  2964  00AE  07B7               	movlw	0FFh
  2965  00AF  30FF               	addwfc	(dtoa@w+1),f
  2966  00B0  3DB8               	line	304
  2967                           	
  2968                           l1097:	
  2969  00B1                     ;C:\Program Files (x86)\Microchip\xc8\v2.00\pic\sources\c99\common\doprnt.c: 304:       
                                   n = n / 10;
  2970                           	movlw	0
  2971  00B1  3000               	movwf	(___aldiv@divisor+3)
  2972  00B2  00F3               	movlw	0
  2973  00B3  3000               	movwf	(___aldiv@divisor+2)
  2974  00B4  00F2               	movlw	0
  2975  00B5  3000               	movwf	(___aldiv@divisor+1)
  2976  00B6  00F1               	movlw	0Ah
  2977  00B7  300A               	movwf	(___aldiv@divisor)
  2978  00B8  00F0               
  2979                           	movf	(dtoa@n+3),w
  2980  00B9  083E               	movwf	(___aldiv@dividend+3)
  2981  00BA  00F7               	movf	(dtoa@n+2),w
  2982  00BB  083D               	movwf	(___aldiv@dividend+2)
  2983  00BC  00F6               	movf	(dtoa@n+1),w
  2984  00BD  083C               	movwf	(___aldiv@dividend+1)
  2985  00BE  00F5               	movf	(dtoa@n),w
  2986  00BF  083B               	movwf	(___aldiv@dividend)
  2987  00C0  00F4               
  2988                           	fcall	___aldiv
  2989  00C1  3182  2219  3180   	movf	(3+(?___aldiv)),w
  2990  00C4  0873               	movlb 0	; select bank0
  2991  00C5  0020               	movwf	(dtoa@n+3)
  2992  00C6  00BE               	movf	(2+(?___aldiv)),w
  2993  00C7  0872               	movwf	(dtoa@n+2)
  2994  00C8  00BD               	movf	(1+(?___aldiv)),w
  2995  00C9  0871               	movwf	(dtoa@n+1)
  2996  00CA  00BC               	movf	(0+(?___aldiv)),w
  2997  00CB  0870               	movwf	(dtoa@n)
  2998  00CC  00BB               
  2999                           	goto	l1099
  3000  00CD  28CE               	line	305
  3001                           ;C:\Program Files (x86)\Microchip\xc8\v2.00\pic\sources\c99\common\doprnt.c: 305:     }

  3002                           	
  3003                           l165:	
  3004  00CE                     	line	299
  3005                           	
  3006                           l1099:	
  3007  00CE                     ;C:\Program Files (x86)\Microchip\xc8\v2.00\pic\sources\c99\common\doprnt.c: 299:     wh
                                 ile (!(i < 1) && (n || (0 < p) || ((0 < w) && (flags & (1 << 1))))) {
  3008                           	movf	(dtoa@i+1),w
  3009  00CE  0840               	xorlw	80h
  3010  00CF  3A80               	movwf	(??_dtoa+0)+0
  3011  00D0  00B0               	movlw	(0)^80h
  3012  00D1  3080               	subwf	(??_dtoa+0)+0,w
  3013  00D2  0230               	skipz
  3014  00D3  1D03               	goto	u905
  3015  00D4  28D7               	movlw	01h
  3016  00D5  3001               	subwf	(dtoa@i),w
  3017  00D6  023F               u905:
  3018  00D7                     
  3019                           	skipc
  3020  00D7  1C03               	goto	u901
  3021  00D8  28DA               	goto	u900
  3022  00D9  28DB               u901:
  3023  00DA                     	goto	l1109
  3024  00DA  2907               u900:
  3025  00DB                     	
  3026                           l1101:	
  3027  00DB                     	movlb 0	; select bank0
  3028  00DB  0020               	movf	(dtoa@n+3),w
  3029  00DC  083E               	iorwf	(dtoa@n+2),w
  3030  00DD  043D               	iorwf	(dtoa@n+1),w
  3031  00DE  043C               	iorwf	(dtoa@n),w
  3032  00DF  043B               	skipz
  3033  00E0  1D03               	goto	u911
  3034  00E1  28E3               	goto	u910
  3035  00E2  28E4               u911:
  3036  00E3                     	goto	l1089
  3037  00E3  2880               u910:
  3038  00E4                     	
  3039                           l1103:	
  3040  00E4                     	movf	(dtoa@p+1),w
  3041  00E4  0835               	xorlw	80h
  3042  00E5  3A80               	movwf	(??_dtoa+0)+0
  3043  00E6  00B0               	movlw	(0)^80h
  3044  00E7  3080               	subwf	(??_dtoa+0)+0,w
  3045  00E8  0230               	skipz
  3046  00E9  1D03               	goto	u925
  3047  00EA  28ED               	movlw	01h
  3048  00EB  3001               	subwf	(dtoa@p),w
  3049  00EC  0234               u925:
  3050  00ED                     
  3051                           	skipnc
  3052  00ED  1803               	goto	u921
  3053  00EE  28F0               	goto	u920
  3054  00EF  28F1               u921:
  3055  00F0                     	goto	l1089
  3056  00F0  2880               u920:
  3057  00F1                     	
  3058                           l1105:	
  3059  00F1                     	movlb 0	; select bank0
  3060  00F1  0020               	movf	(dtoa@w+1),w
  3061  00F2  0838               	xorlw	80h
  3062  00F3  3A80               	movwf	(??_dtoa+0)+0
  3063  00F4  00B0               	movlw	(0)^80h
  3064  00F5  3080               	subwf	(??_dtoa+0)+0,w
  3065  00F6  0230               	skipz
  3066  00F7  1D03               	goto	u935
  3067  00F8  28FB               	movlw	01h
  3068  00F9  3001               	subwf	(dtoa@w),w
  3069  00FA  0237               u935:
  3070  00FB                     
  3071                           	skipc
  3072  00FB  1C03               	goto	u931
  3073  00FC  28FE               	goto	u930
  3074  00FD  28FF               u931:
  3075  00FE                     	goto	l1109
  3076  00FE  2907               u930:
  3077  00FF                     	
  3078                           l1107:	
  3079  00FF                     	movlb 0	; select bank0
  3080  00FF  0020               	btfsc	(_flags),(1)&7
  3081  0100  18E6               	goto	u941
  3082  0101  2903               	goto	u940
  3083  0102  2904               u941:
  3084  0103                     	goto	l1089
  3085  0103  2880               u940:
  3086  0104                     	goto	l1109
  3087  0104  2907               	
  3088                           l170:	
  3089  0105                     	goto	l1109
  3090  0105  2907               	
  3091                           l168:	
  3092  0106                     	goto	l1109
  3093  0106  2907               	
  3094                           l171:	
  3095  0107                     	line	308
  3096                           	
  3097                           l1109:	
  3098  0107                     ;C:\Program Files (x86)\Microchip\xc8\v2.00\pic\sources\c99\common\doprnt.c: 308:     if
                                  (s || (flags & (1 << 2))) {
  3099                           	movlb 0	; select bank0
  3100  0107  0020               	movf	((dtoa@s)),w
  3101  0108  0839               iorwf	((dtoa@s+1)),w
  3102  0109  043A               	btfss	status,2
  3103  010A  1D03               	goto	u951
  3104  010B  290D               	goto	u950
  3105  010C  290E               u951:
  3106  010D                     	goto	l1113
  3107  010D  2913               u950:
  3108  010E                     	
  3109                           l1111:	
  3110  010E                     	btfss	(_flags),(2)&7
  3111  010E  1D66               	goto	u961
  3112  010F  2911               	goto	u960
  3113  0110  2912               u961:
  3114  0111                     	goto	l1123
  3115  0111  2930               u960:
  3116  0112                     	goto	l1113
  3117  0112  2913               	
  3118                           l174:	
  3119  0113                     	line	309
  3120                           	
  3121                           l1113:	
  3122  0113                     ;C:\Program Files (x86)\Microchip\xc8\v2.00\pic\sources\c99\common\doprnt.c: 309:       
                                   --i;
  3123                           	movlw	0FFh
  3124  0113  30FF               	addwf	(dtoa@i),f
  3125  0114  07BF               	movlw	0FFh
  3126  0115  30FF               	addwfc	(dtoa@i+1),f
  3127  0116  3DC0               	line	310
  3128                           	
  3129                           l1115:	
  3130  0117                     ;C:\Program Files (x86)\Microchip\xc8\v2.00\pic\sources\c99\common\doprnt.c: 310:       
                                   dbuf[i] = s ? '-' : '+';
  3131                           	movf	((dtoa@s)),w
  3132  0117  0839               iorwf	((dtoa@s+1)),w
  3133  0118  043A               	btfss	status,2
  3134  0119  1D03               	goto	u971
  3135  011A  291C               	goto	u970
  3136  011B  291D               u971:
  3137  011C                     	goto	l1119
  3138  011C  2922               u970:
  3139  011D                     	
  3140                           l1117:	
  3141  011D                     	movlw	02Bh
  3142  011D  302B               	movwf	(_dtoa$235)
  3143  011E  00B2               	movlw	0
  3144  011F  3000               	movwf	((_dtoa$235))+1
  3145  0120  00B3               	goto	l1121
  3146  0121  2927               	
  3147                           l176:	
  3148  0122                     	
  3149                           l1119:	
  3150  0122                     	movlw	02Dh
  3151  0122  302D               	movwf	(_dtoa$235)
  3152  0123  00B2               	movlw	0
  3153  0124  3000               	movwf	((_dtoa$235))+1
  3154  0125  00B3               	goto	l1121
  3155  0126  2927               	
  3156                           l178:	
  3157  0127                     	
  3158                           l1121:	
  3159  0127                     	movf	(_dtoa$235),w
  3160  0127  0832               	movwf	(??_dtoa+0)+0
  3161  0128  00B0               	movf	(dtoa@i),w
  3162  0129  083F               	addlw	low(_dbuf|((0x0)<<8))&0ffh
  3163  012A  3EA0               	movwf	fsr1l
  3164  012B  0086               	clrf fsr1h	
  3165  012C  0187               	
  3166                           	movf	(??_dtoa+0)+0,w
  3167  012D  0830               	movwf	indf1
  3168  012E  0081               	goto	l1123
  3169  012F  2930               	line	311
  3170                           ;C:\Program Files (x86)\Microchip\xc8\v2.00\pic\sources\c99\common\doprnt.c: 311:     }

  3171                           	
  3172                           l172:	
  3173  0130                     	line	314
  3174                           	
  3175                           l1123:	
  3176  0130                     ;C:\Program Files (x86)\Microchip\xc8\v2.00\pic\sources\c99\common\doprnt.c: 314:     re
                                 turn pad(fp, &dbuf[i], w);
  3177                           	movf	(dtoa@i),w
  3178  0130  083F               	addlw	low(_dbuf|((0x0)<<8))&0ffh
  3179  0131  3EA0               	movwf	(??_dtoa+0)+0
  3180  0132  00B0               	movf	(??_dtoa+0)+0,w
  3181  0133  0830               	movwf	(pad@buf)
  3182  0134  00A4               	movf	(dtoa@w+1),w
  3183  0135  0838               	movwf	(pad@p+1)
  3184  0136  00A6               	movf	(dtoa@w),w
  3185  0137  0837               	movwf	(pad@p)
  3186  0138  00A5               	movf	(dtoa@fp),w
  3187  0139  0836               	fcall	_pad
  3188  013A  3183  2336  3180   	movlb 0	; select bank0
  3189  013D  0020               	movf	(1+(?_pad)),w
  3190  013E  0825               	movwf	(?_dtoa+1)
  3191  013F  00AD               	movf	(0+(?_pad)),w
  3192  0140  0824               	movwf	(?_dtoa)
  3193  0141  00AC               	goto	l179
  3194  0142  2943               	
  3195                           l1125:	
  3196  0143                     	line	315
  3197                           	
  3198                           l179:	
  3199  0143                     	return
  3200  0143  0008               	opt stack 0
  3201                           GLOBAL	__end_of_dtoa
  3202                           	__end_of_dtoa:
  3203  0144                     	signat	_dtoa,8314
  3204                           	global	_pad
  3205                           
  3206 ;; *************** function _pad *****************
  3207 ;; Defined at:
  3208 ;;		line 72 in file "C:\Program Files (x86)\Microchip\xc8\v2.00\pic\sources\c99\common\doprnt.c"
  3209 ;; Parameters:    Size  Location     Type
  3210 ;;  fp              1    wreg     PTR struct _IO_FILE
  3211 ;;		 -> NULL(0), 
  3212 ;;  buf             1    4[BANK0 ] PTR unsigned char 
  3213 ;;		 -> dbuf(32), 
  3214 ;;  p               2    5[BANK0 ] int 
  3215 ;; Auto vars:     Size  Location     Type
  3216 ;;  fp              1   11[BANK0 ] PTR struct _IO_FILE
  3217 ;;		 -> NULL(0), 
  3218 ;;  w               2    9[BANK0 ] int 
  3219 ;;  i               2    7[BANK0 ] int 
  3220 ;; Return value:  Size  Location     Type
  3221 ;;                  2    4[BANK0 ] int 
  3222 ;; Registers used:
  3223 ;;		wreg, fsr1l, fsr1h, status,2, status,0, pclath, cstack
  3224 ;; Tracked objects:
  3225 ;;		On entry : 0/0
  3226 ;;		On exit  : 0/0
  3227 ;;		Unchanged: 0/0
  3228 ;; Data sizes:     COMMON   BANK0   BANK1   BANK2
  3229 ;;      Params:         0       3       0       0
  3230 ;;      Locals:         0       5       0       0
  3231 ;;      Temps:          1       0       0       0
  3232 ;;      Totals:         1       8       0       0
  3233 ;;Total ram usage:        9 bytes
  3234 ;; Hardware stack levels used:    1
  3235 ;; Hardware stack levels required when called:    4
  3236 ;; This function calls:
  3237 ;;		_fputc
  3238 ;;		_fputs
  3239 ;;		_strlen
  3240 ;; This function is called by:
  3241 ;;		_dtoa
  3242 ;; This function uses a non-reentrant model
  3243 ;;
  3244                           psect	text5,local,class=CODE,delta=2,merge=1,group=0
  3245                           	line	72
  3246                           global __ptext5
  3247                           __ptext5:	;psect for function _pad
  3248  0336                     psect	text5
  3249                           	file	"C:\Program Files (x86)\Microchip\xc8\v2.00\pic\sources\c99\common\doprnt.c"
  3250                           	line	72
  3251                           	global	__size_of_pad
  3252                           	__size_of_pad	equ	__end_of_pad-_pad
  3253  0059                     	
  3254                           _pad:	
  3255  0336                     ;incstack = 0
  3256                           	opt	stack 7
  3257                           ; Regs used in _pad: [wreg+fsr1l+fsr1h+status,2+status,0+pclath+cstack]
  3258                           ;pad@fp stored from wreg
  3259                           	movlb 0	; select bank0
  3260  0336  0020               	movwf	(pad@fp)
  3261  0337  00AB               	line	77
  3262                           	
  3263                           l973:	
  3264  0338                     ;C:\Program Files (x86)\Microchip\xc8\v2.00\pic\sources\c99\common\doprnt.c: 72: static 
                                 int pad(FILE *fp, char *buf, int p);C:\Program Files (x86)\Microchip\xc8\v2.00\pic\sourc
                                 es\c99\common\doprnt.c: 73: {;C:\Program Files (x86)\Microchip\xc8\v2.00\pic\sources\c99
                                 \common\doprnt.c: 74:     int i, w;;C:\Program Files (x86)\Microchip\xc8\v2.00\pic\sourc
                                 es\c99\common\doprnt.c: 77:     if (flags & (1 << 0)) {
  3265                           	btfss	(_flags),(0)&7
  3266  0338  1C66               	goto	u591
  3267  0339  2B3B               	goto	u590
  3268  033A  2B3C               u591:
  3269  033B                     	goto	l977
  3270  033B  2B45               u590:
  3271  033C                     	line	78
  3272                           	
  3273                           l975:	
  3274  033C                     ;C:\Program Files (x86)\Microchip\xc8\v2.00\pic\sources\c99\common\doprnt.c: 78:        
                                  fputs((const char *)buf, fp);
  3275                           	movf	(pad@fp),w
  3276  033C  082B               	movwf	(??_pad+0)+0
  3277  033D  00FC               	movf	(??_pad+0)+0,w
  3278  033E  087C               	movwf	(fputs@fp)
  3279  033F  00F8               	movf	(pad@buf),w
  3280  0340  0824               	fcall	_fputs
  3281  0341  3184  2473  3183   	goto	l977
  3282  0344  2B45               	line	79
  3283                           ;C:\Program Files (x86)\Microchip\xc8\v2.00\pic\sources\c99\common\doprnt.c: 79:     }
  3284                           	
  3285                           l144:	
  3286  0345                     	line	82
  3287                           	
  3288                           l977:	
  3289  0345                     ;C:\Program Files (x86)\Microchip\xc8\v2.00\pic\sources\c99\common\doprnt.c: 82:     w =
                                  (p < 0) ? 0 : p;
  3290                           	movlb 0	; select bank0
  3291  0345  0020               	btfsc	(pad@p+1),7
  3292  0346  1BA6               	goto	u601
  3293  0347  2B49               	goto	u600
  3294  0348  2B4A               u601:
  3295  0349                     	goto	l981
  3296  0349  2B4F               u600:
  3297  034A                     	
  3298                           l979:	
  3299  034A                     	movf	(pad@p+1),w
  3300  034A  0826               	movwf	(pad@w+1)
  3301  034B  00AA               	movf	(pad@p),w
  3302  034C  0825               	movwf	(pad@w)
  3303  034D  00A9               	goto	l148
  3304  034E  2B51               	
  3305                           l146:	
  3306  034F                     	
  3307                           l981:	
  3308  034F                     	clrf	(pad@w)
  3309  034F  01A9               	clrf	(pad@w+1)
  3310  0350  01AA               	
  3311                           l148:	
  3312  0351                     	line	83
  3313                           ;C:\Program Files (x86)\Microchip\xc8\v2.00\pic\sources\c99\common\doprnt.c: 83:     i =
                                  0;
  3314                           	clrf	(pad@i)
  3315  0351  01A7               	clrf	(pad@i+1)
  3316  0352  01A8               	line	84
  3317                           ;C:\Program Files (x86)\Microchip\xc8\v2.00\pic\sources\c99\common\doprnt.c: 84:     whi
                                 le (i < w) {
  3318                           	goto	l987
  3319  0353  2B66               	
  3320                           l150:	
  3321  0354                     	line	85
  3322                           	
  3323                           l983:	
  3324  0354                     ;C:\Program Files (x86)\Microchip\xc8\v2.00\pic\sources\c99\common\doprnt.c: 85:        
                                  fputc(' ', fp);
  3325                           	movlw	020h
  3326  0354  3020               	movwf	(fputc@c)
  3327  0355  00F0               	movlw	0
  3328  0356  3000               	movwf	((fputc@c))+1
  3329  0357  00F1               	movlb 0	; select bank0
  3330  0358  0020               	movf	(pad@fp),w
  3331  0359  082B               	movwf	(??_pad+0)+0
  3332  035A  00FC               	movf	(??_pad+0)+0,w
  3333  035B  087C               	movwf	(fputc@fp)
  3334  035C  00F2               	fcall	_fputc
  3335  035D  3183  23D6  3183   	line	86
  3336                           	
  3337                           l985:	
  3338  0360                     ;C:\Program Files (x86)\Microchip\xc8\v2.00\pic\sources\c99\common\doprnt.c: 86:        
                                  ++i;
  3339                           	movlw	01h
  3340  0360  3001               	movlb 0	; select bank0
  3341  0361  0020               	addwf	(pad@i),f
  3342  0362  07A7               	movlw	0
  3343  0363  3000               	addwfc	(pad@i+1),f
  3344  0364  3DA8               	goto	l987
  3345  0365  2B66               	line	87
  3346                           ;C:\Program Files (x86)\Microchip\xc8\v2.00\pic\sources\c99\common\doprnt.c: 87:     }
  3347                           	
  3348                           l149:	
  3349  0366                     	line	84
  3350                           	
  3351                           l987:	
  3352  0366                     ;C:\Program Files (x86)\Microchip\xc8\v2.00\pic\sources\c99\common\doprnt.c: 84:     whi
                                 le (i < w) {
  3353                           	movf	(pad@i+1),w
  3354  0366  0828               	xorlw	80h
  3355  0367  3A80               	movwf	(??_pad+0)+0
  3356  0368  00FC               	movf	(pad@w+1),w
  3357  0369  082A               	xorlw	80h
  3358  036A  3A80               	subwf	(??_pad+0)+0,w
  3359  036B  027C               	skipz
  3360  036C  1D03               	goto	u615
  3361  036D  2B70               	movf	(pad@w),w
  3362  036E  0829               	subwf	(pad@i),w
  3363  036F  0227               u615:
  3364  0370                     
  3365                           	skipc
  3366  0370  1C03               	goto	u611
  3367  0371  2B73               	goto	u610
  3368  0372  2B74               u611:
  3369  0373                     	goto	l983
  3370  0373  2B54               u610:
  3371  0374                     	
  3372                           l151:	
  3373  0374                     	line	90
  3374                           ;C:\Program Files (x86)\Microchip\xc8\v2.00\pic\sources\c99\common\doprnt.c: 90:     if 
                                 (!(flags & (1 << 0))) {
  3375                           	movlb 0	; select bank0
  3376  0374  0020               	btfsc	(_flags),(0)&7
  3377  0375  1866               	goto	u621
  3378  0376  2B78               	goto	u620
  3379  0377  2B79               u621:
  3380  0378                     	goto	l152
  3381  0378  2B81               u620:
  3382  0379                     	line	91
  3383                           	
  3384                           l989:	
  3385  0379                     ;C:\Program Files (x86)\Microchip\xc8\v2.00\pic\sources\c99\common\doprnt.c: 91:        
                                  fputs((const char *)buf, fp);
  3386                           	movf	(pad@fp),w
  3387  0379  082B               	movwf	(??_pad+0)+0
  3388  037A  00FC               	movf	(??_pad+0)+0,w
  3389  037B  087C               	movwf	(fputs@fp)
  3390  037C  00F8               	movf	(pad@buf),w
  3391  037D  0824               	fcall	_fputs
  3392  037E  3184  2473  3183   	line	92
  3393                           ;C:\Program Files (x86)\Microchip\xc8\v2.00\pic\sources\c99\common\doprnt.c: 92:     }
  3394                           	
  3395                           l152:	
  3396  0381                     	line	94
  3397                           ;C:\Program Files (x86)\Microchip\xc8\v2.00\pic\sources\c99\common\doprnt.c: 94:     ret
                                 urn strlen(buf) + w;
  3398                           	movlb 0	; select bank0
  3399  0381  0020               	movf	(pad@buf),w
  3400  0382  0824               	fcall	_strlen
  3401  0383  3184  249D  3183   	movlb 0	; select bank0
  3402  0386  0020               	movf	(pad@w),w
  3403  0387  0829               	addwf	(0+(?_strlen)),w
  3404  0388  0770               	movwf	(?_pad)
  3405  0389  00A4               	movf	(pad@w+1),w
  3406  038A  082A               	addwfc	(1+(?_strlen)),w
  3407  038B  3D71               	movwf	1+(?_pad)
  3408  038C  00A5               	goto	l153
  3409  038D  2B8E               	
  3410                           l991:	
  3411  038E                     	line	95
  3412                           	
  3413                           l153:	
  3414  038E                     	return
  3415  038E  0008               	opt stack 0
  3416                           GLOBAL	__end_of_pad
  3417                           	__end_of_pad:
  3418  038F                     	signat	_pad,12410
  3419                           	global	_strlen
  3420                           
  3421 ;; *************** function _strlen *****************
  3422 ;; Defined at:
  3423 ;;		line 12 in file "C:\Program Files (x86)\Microchip\xc8\v2.00\pic\sources\c99\common\strlen.c"
  3424 ;; Parameters:    Size  Location     Type
  3425 ;;  s               1    wreg     PTR const unsigned char 
  3426 ;;		 -> dbuf(32), 
  3427 ;; Auto vars:     Size  Location     Type
  3428 ;;  s               1    7[COMMON] PTR const unsigned char 
  3429 ;;		 -> dbuf(32), 
  3430 ;;  a               1    6[COMMON] PTR const unsigned char 
  3431 ;;		 -> dbuf(32), 
  3432 ;; Return value:  Size  Location     Type
  3433 ;;                  2    0[COMMON] unsigned int 
  3434 ;; Registers used:
  3435 ;;		wreg, fsr1l, fsr1h, status,2, status,0
  3436 ;; Tracked objects:
  3437 ;;		On entry : 0/0
  3438 ;;		On exit  : 0/0
  3439 ;;		Unchanged: 0/0
  3440 ;; Data sizes:     COMMON   BANK0   BANK1   BANK2
  3441 ;;      Params:         2       0       0       0
  3442 ;;      Locals:         2       0       0       0
  3443 ;;      Temps:          4       0       0       0
  3444 ;;      Totals:         8       0       0       0
  3445 ;;Total ram usage:        8 bytes
  3446 ;; Hardware stack levels used:    1
  3447 ;; Hardware stack levels required when called:    1
  3448 ;; This function calls:
  3449 ;;		Nothing
  3450 ;; This function is called by:
  3451 ;;		_pad
  3452 ;; This function uses a non-reentrant model
  3453 ;;
  3454                           psect	text6,local,class=CODE,delta=2,merge=1,group=2
  3455                           	file	"C:\Program Files (x86)\Microchip\xc8\v2.00\pic\sources\c99\common\strlen.c"
  3456                           	line	12
  3457                           global __ptext6
  3458                           __ptext6:	;psect for function _strlen
  3459  049D                     psect	text6
  3460                           	file	"C:\Program Files (x86)\Microchip\xc8\v2.00\pic\sources\c99\common\strlen.c"
  3461                           	line	12
  3462                           	global	__size_of_strlen
  3463                           	__size_of_strlen	equ	__end_of_strlen-_strlen
  3464  0029                     	
  3465                           _strlen:	
  3466  049D                     ;incstack = 0
  3467                           	opt	stack 9
  3468                           ; Regs used in _strlen: [wreg+fsr1l+fsr1h+status,2+status,0]
  3469                           ;strlen@s stored from wreg
  3470                           	movwf	(strlen@s)
  3471  049D  00F7               	line	14
  3472                           	
  3473                           l963:	
  3474  049E                     	movf	(strlen@s),w
  3475  049E  0877               	movwf	(??_strlen+0)+0
  3476  049F  00F2               	movf	(??_strlen+0)+0,w
  3477  04A0  0872               	movwf	(strlen@a)
  3478  04A1  00F6               	line	16
  3479                           	goto	l967
  3480  04A2  2CA8               	
  3481                           l669:	
  3482  04A3                     	line	17
  3483                           	
  3484                           l965:	
  3485  04A3                     	movlw	low(01h)
  3486  04A3  3001               	movwf	(??_strlen+0)+0
  3487  04A4  00F2               	movf	(??_strlen+0)+0,w
  3488  04A5  0872               	addwf	(strlen@s),f
  3489  04A6  07F7               	goto	l967
  3490  04A7  2CA8               	line	18
  3491                           	
  3492                           l668:	
  3493  04A8                     	line	16
  3494                           	
  3495                           l967:	
  3496  04A8                     	movf	(strlen@s),w
  3497  04A8  0877               	movwf	fsr1l
  3498  04A9  0086               	clrf fsr1h	
  3499  04AA  0187               	
  3500                           	movf	(indf1),w
  3501  04AB  0801               	btfss	status,2
  3502  04AC  1D03               	goto	u581
  3503  04AD  2CAF               	goto	u580
  3504  04AE  2CB0               u581:
  3505  04AF                     	goto	l965
  3506  04AF  2CA3               u580:
  3507  04B0                     	goto	l969
  3508  04B0  2CB1               	
  3509                           l670:	
  3510  04B1                     	line	25
  3511                           	
  3512                           l969:	
  3513  04B1                     	movf	(strlen@a),w
  3514  04B1  0876               	movwf	(??_strlen+0)+0
  3515  04B2  00F2               	movlw	(0x0)
  3516  04B3  3000               	movwf	(??_strlen+0)+0+1
  3517  04B4  00F3               	comf	(??_strlen+0)+0,f
  3518  04B5  09F2               	comf	(??_strlen+0)+1,f
  3519  04B6  09F3               	incf	(??_strlen+0)+0,f
  3520  04B7  0AF2               	skipnz
  3521  04B8  1903               	incf	(??_strlen+0)+1,f
  3522  04B9  0AF3               	movf	(strlen@s),w
  3523  04BA  0877               	movwf	(??_strlen+2)+0
  3524  04BB  00F4               	movlw	(0x0)
  3525  04BC  3000               	movwf	(??_strlen+2)+0+1
  3526  04BD  00F5               	movf	0+(??_strlen+0)+0,w
  3527  04BE  0872               	addwf	0+(??_strlen+2)+0,w
  3528  04BF  0774               	movwf	(?_strlen)
  3529  04C0  00F0               	movf	1+(??_strlen+0)+0,w
  3530  04C1  0873               	addwfc	1+(??_strlen+2)+0,w
  3531  04C2  3D75               	movwf	1+(?_strlen)
  3532  04C3  00F1               	goto	l671
  3533  04C4  2CC5               	
  3534                           l971:	
  3535  04C5                     	line	26
  3536                           	
  3537                           l671:	
  3538  04C5                     	return
  3539  04C5  0008               	opt stack 0
  3540                           GLOBAL	__end_of_strlen
  3541                           	__end_of_strlen:
  3542  04C6                     	signat	_strlen,4218
  3543                           	global	_fputs
  3544                           
  3545 ;; *************** function _fputs *****************
  3546 ;; Defined at:
  3547 ;;		line 8 in file "C:\Program Files (x86)\Microchip\xc8\v2.00\pic\sources\c99\common\nf_fputs.c"
  3548 ;; Parameters:    Size  Location     Type
  3549 ;;  s               1    wreg     PTR const unsigned char 
  3550 ;;		 -> dbuf(32), 
  3551 ;;  fp              1    8[COMMON] PTR struct _IO_FILE
  3552 ;;		 -> NULL(0), 
  3553 ;; Auto vars:     Size  Location     Type
  3554 ;;  s               1    3[BANK0 ] PTR const unsigned char 
  3555 ;;		 -> dbuf(32), 
  3556 ;;  i               2    1[BANK0 ] int 
  3557 ;;  c               1    0[BANK0 ] unsigned char 
  3558 ;; Return value:  Size  Location     Type
  3559 ;;                  2    8[COMMON] int 
  3560 ;; Registers used:
  3561 ;;		wreg, fsr1l, fsr1h, status,2, status,0, pclath, cstack
  3562 ;; Tracked objects:
  3563 ;;		On entry : 0/0
  3564 ;;		On exit  : 0/0
  3565 ;;		Unchanged: 0/0
  3566 ;; Data sizes:     COMMON   BANK0   BANK1   BANK2
  3567 ;;      Params:         1       0       0       0
  3568 ;;      Locals:         0       4       0       0
  3569 ;;      Temps:          3       0       0       0
  3570 ;;      Totals:         4       4       0       0
  3571 ;;Total ram usage:        8 bytes
  3572 ;; Hardware stack levels used:    1
  3573 ;; Hardware stack levels required when called:    3
  3574 ;; This function calls:
  3575 ;;		_fputc
  3576 ;; This function is called by:
  3577 ;;		_pad
  3578 ;; This function uses a non-reentrant model
  3579 ;;
  3580                           psect	text7,local,class=CODE,delta=2,merge=1,group=2
  3581                           	file	"C:\Program Files (x86)\Microchip\xc8\v2.00\pic\sources\c99\common\nf_fputs.c"
  3582                           	line	8
  3583                           global __ptext7
  3584                           __ptext7:	;psect for function _fputs
  3585  0473                     psect	text7
  3586                           	file	"C:\Program Files (x86)\Microchip\xc8\v2.00\pic\sources\c99\common\nf_fputs.c"
  3587                           	line	8
  3588                           	global	__size_of_fputs
  3589                           	__size_of_fputs	equ	__end_of_fputs-_fputs
  3590  002A                     	
  3591                           _fputs:	
  3592  0473                     ;incstack = 0
  3593                           	opt	stack 7
  3594                           ; Regs used in _fputs: [wreg+fsr1l+fsr1h+status,2+status,0+pclath+cstack]
  3595                           ;fputs@s stored from wreg
  3596                           	movlb 0	; select bank0
  3597  0473  0020               	movwf	(fputs@s)
  3598  0474  00A3               	line	13
  3599                           	
  3600                           l955:	
  3601  0475                     	clrf	(fputs@i)
  3602  0475  01A1               	clrf	(fputs@i+1)
  3603  0476  01A2               	line	14
  3604                           	goto	l961
  3605  0477  2C8C               	
  3606                           l653:	
  3607  0478                     	line	15
  3608                           	
  3609                           l957:	
  3610  0478                     	movf	(fputs@c),w
  3611  0478  0820               	movwf	(??_fputs+0)+0
  3612  0479  00F9               	clrf	(??_fputs+0)+0+1
  3613  047A  01FA               	movf	0+(??_fputs+0)+0,w
  3614  047B  0879               	movwf	(fputc@c)
  3615  047C  00F0               	movf	1+(??_fputs+0)+0,w
  3616  047D  087A               	movwf	(fputc@c+1)
  3617  047E  00F1               	movf	(fputs@fp),w
  3618  047F  0878               	movwf	(??_fputs+2)+0
  3619  0480  00FB               	movf	(??_fputs+2)+0,w
  3620  0481  087B               	movwf	(fputc@fp)
  3621  0482  00F2               	fcall	_fputc
  3622  0483  3183  23D6  3184   	line	16
  3623                           	
  3624                           l959:	
  3625  0486                     	movlw	01h
  3626  0486  3001               	movlb 0	; select bank0
  3627  0487  0020               	addwf	(fputs@i),f
  3628  0488  07A1               	movlw	0
  3629  0489  3000               	addwfc	(fputs@i+1),f
  3630  048A  3DA2               	goto	l961
  3631  048B  2C8C               	line	17
  3632                           	
  3633                           l652:	
  3634  048C                     	line	14
  3635                           	
  3636                           l961:	
  3637  048C                     	movf	(fputs@i),w
  3638  048C  0821               	addwf	(fputs@s),w
  3639  048D  0723               	movwf	(??_fputs+0)+0
  3640  048E  00F9               	movf	0+(??_fputs+0)+0,w
  3641  048F  0879               	movwf	fsr1l
  3642  0490  0086               	clrf fsr1h	
  3643  0491  0187               	
  3644                           	movf	indf1,w
  3645  0492  0801               	movwf	(??_fputs+1)+0
  3646  0493  00FA               	movf	(??_fputs+1)+0,w
  3647  0494  087A               	movwf	(fputs@c)
  3648  0495  00A0               	movf	(((fputs@c))),w
  3649  0496  0820               	btfss	status,2
  3650  0497  1D03               	goto	u571
  3651  0498  2C9A               	goto	u570
  3652  0499  2C9B               u571:
  3653  049A                     	goto	l957
  3654  049A  2C78               u570:
  3655  049B                     	goto	l655
  3656  049B  2C9C               	
  3657                           l654:	
  3658  049C                     	line	19
  3659                           ;	Return value of _fputs is never used
  3660                           	
  3661                           l655:	
  3662  049C                     	return
  3663  049C  0008               	opt stack 0
  3664                           GLOBAL	__end_of_fputs
  3665                           	__end_of_fputs:
  3666  049D                     	signat	_fputs,8314
  3667                           	global	_fputc
  3668                           
  3669 ;; *************** function _fputc *****************
  3670 ;; Defined at:
  3671 ;;		line 8 in file "C:\Program Files (x86)\Microchip\xc8\v2.00\pic\sources\c99\common\nf_fputc.c"
  3672 ;; Parameters:    Size  Location     Type
  3673 ;;  c               2    0[COMMON] int 
  3674 ;;  fp              1    2[COMMON] PTR struct _IO_FILE
  3675 ;;		 -> NULL(0), 
  3676 ;; Auto vars:     Size  Location     Type
  3677 ;;		None
  3678 ;; Return value:  Size  Location     Type
  3679 ;;                  2    0[COMMON] int 
  3680 ;; Registers used:
  3681 ;;		wreg, fsr1l, fsr1h, status,2, status,0, pclath, cstack
  3682 ;; Tracked objects:
  3683 ;;		On entry : 0/0
  3684 ;;		On exit  : 0/0
  3685 ;;		Unchanged: 0/0
  3686 ;; Data sizes:     COMMON   BANK0   BANK1   BANK2
  3687 ;;      Params:         3       0       0       0
  3688 ;;      Locals:         0       0       0       0
  3689 ;;      Temps:          5       0       0       0
  3690 ;;      Totals:         8       0       0       0
  3691 ;;Total ram usage:        8 bytes
  3692 ;; Hardware stack levels used:    1
  3693 ;; Hardware stack levels required when called:    2
  3694 ;; This function calls:
  3695 ;;		_putch
  3696 ;; This function is called by:
  3697 ;;		_pad
  3698 ;;		_vfpfcnvrt
  3699 ;;		_fputs
  3700 ;; This function uses a non-reentrant model
  3701 ;;
  3702                           psect	text8,local,class=CODE,delta=2,merge=1,group=2
  3703                           	file	"C:\Program Files (x86)\Microchip\xc8\v2.00\pic\sources\c99\common\nf_fputc.c"
  3704                           	line	8
  3705                           global __ptext8
  3706                           __ptext8:	;psect for function _fputc
  3707  03D6                     psect	text8
  3708                           	file	"C:\Program Files (x86)\Microchip\xc8\v2.00\pic\sources\c99\common\nf_fputc.c"
  3709                           	line	8
  3710                           	global	__size_of_fputc
  3711                           	__size_of_fputc	equ	__end_of_fputc-_fputc
  3712  0044                     	
  3713                           _fputc:	
  3714  03D6                     ;incstack = 0
  3715                           	opt	stack 10
  3716                           ; Regs used in _fputc: [wreg+fsr1l+fsr1h+status,2+status,0+pclath+cstack]
  3717                           	line	12
  3718                           	
  3719                           l941:	
  3720  03D6                     	movf	((fputc@fp)),w
  3721  03D6  0872               	btfsc	status,2
  3722  03D7  1903               	goto	u531
  3723  03D8  2BDA               	goto	u530
  3724  03D9  2BDB               u531:
  3725  03DA                     	goto	l945
  3726  03DA  2BE1               u530:
  3727  03DB                     	
  3728                           l943:	
  3729  03DB                     	movf	((fputc@fp)),w
  3730  03DB  0872               	btfss	status,2
  3731  03DC  1D03               	goto	u541
  3732  03DD  2BDF               	goto	u540
  3733  03DE  2BE0               u541:
  3734  03DF                     	goto	l947
  3735  03DF  2BE6               u540:
  3736  03E0                     	goto	l945
  3737  03E0  2BE1               	
  3738                           l642:	
  3739  03E1                     	line	13
  3740                           	
  3741                           l945:	
  3742  03E1                     	movf	(fputc@c),w
  3743  03E1  0870               	fcall	_putch
  3744  03E2  3185  2524  3183   	line	14
  3745                           	goto	l647
  3746  03E5  2C19               	
  3747                           l640:	
  3748  03E6                     	line	15
  3749                           	
  3750                           l947:	
  3751  03E6                     	movf	(fputc@fp),w
  3752  03E6  0872               	addlw	03h
  3753  03E7  3E03               	movwf	fsr1l
  3754  03E8  0086               	clrf fsr1h	
  3755  03E9  0187               	
  3756                           		moviw	fsr1++
  3757  03EA  0016               	iorwf	indf1,w
  3758  03EB  0401               	btfsc	status,2
  3759  03EC  1903               	goto	u551
  3760  03ED  2BEF               	goto	u550
  3761  03EE  2BF0               
  3762                           u551:
  3763  03EF                     	goto	l951
  3764  03EF  2C0E               u550:
  3765  03F0                     	
  3766                           l949:	
  3767  03F0                     	movf	(fputc@fp),w
  3768  03F0  0872               	addlw	03h
  3769  03F1  3E03               	movwf	fsr1l
  3770  03F2  0086               	clrf fsr1h	
  3771  03F3  0187               	
  3772                           	moviw	[0]fsr1
  3773  03F4  3F40               	movwf	(??_fputc+0)+0
  3774  03F5  00F3               	moviw	[1]fsr1
  3775  03F6  3F41               	movwf	(??_fputc+0)+0+1
  3776  03F7  00F4               	incf	(fputc@fp),w
  3777  03F8  0A72               	movwf	fsr1l
  3778  03F9  0086               	clrf fsr1h	
  3779  03FA  0187               	
  3780                           	moviw	[0]fsr1
  3781  03FB  3F40               	movwf	(??_fputc+2)+0
  3782  03FC  00F5               	moviw	[1]fsr1
  3783  03FD  3F41               	movwf	(??_fputc+2)+0+1
  3784  03FE  00F6               	movf	1+(??_fputc+2)+0,w
  3785  03FF  0876               	xorlw	80h
  3786  0400  3A80               	movwf	(??_fputc+4)+0
  3787  0401  00F7               	movf	1+(??_fputc+0)+0,w
  3788  0402  0874               	xorlw	80h
  3789  0403  3A80               	subwf	(??_fputc+4)+0,w
  3790  0404  0277               	skipz
  3791  0405  1D03               	goto	u565
  3792  0406  2C09               	movf	0+(??_fputc+0)+0,w
  3793  0407  0873               	subwf	0+(??_fputc+2)+0,w
  3794  0408  0275               u565:
  3795  0409                     
  3796                           	skipnc
  3797  0409  1803               	goto	u561
  3798  040A  2C0C               	goto	u560
  3799  040B  2C0D               u561:
  3800  040C                     	goto	l647
  3801  040C  2C19               u560:
  3802  040D                     	goto	l951
  3803  040D  2C0E               	
  3804                           l646:	
  3805  040E                     	line	17
  3806                           	
  3807                           l951:	
  3808  040E                     	incf	(fputc@fp),w
  3809  040E  0A72               	movwf	fsr1l
  3810  040F  0086               	clrf fsr1h	
  3811  0410  0187               	
  3812                           	movlw	01h
  3813  0411  3001               	addwf	indf1,f
  3814  0412  0781               	addfsr	fsr1,1
  3815  0413  3141               	skipnc
  3816  0414  1803               	incf	indf1,f
  3817  0415  0A81               	goto	l647
  3818  0416  2C19               	line	18
  3819                           	
  3820                           l644:	
  3821  0417                     	goto	l647
  3822  0417  2C19               	line	19
  3823                           	
  3824                           l643:	
  3825  0418                     	goto	l647
  3826  0418  2C19               	line	20
  3827                           	
  3828                           l953:	
  3829  0419                     	line	21
  3830                           ;	Return value of _fputc is never used
  3831                           	
  3832                           l647:	
  3833  0419                     	return
  3834  0419  0008               	opt stack 0
  3835                           GLOBAL	__end_of_fputc
  3836                           	__end_of_fputc:
  3837  041A                     	signat	_fputc,8314
  3838                           	global	_putch
  3839                           
  3840 ;; *************** function _putch *****************
  3841 ;; Defined at:
  3842 ;;		line 7 in file "C:\Program Files (x86)\Microchip\xc8\v2.00\pic\sources\c99\common\putch.c"
  3843 ;; Parameters:    Size  Location     Type
  3844 ;;  c               1    wreg     unsigned char 
  3845 ;; Auto vars:     Size  Location     Type
  3846 ;;  c               1    0[COMMON] unsigned char 
  3847 ;; Return value:  Size  Location     Type
  3848 ;;                  1    wreg      void 
  3849 ;; Registers used:
  3850 ;;		wreg
  3851 ;; Tracked objects:
  3852 ;;		On entry : 0/0
  3853 ;;		On exit  : 0/0
  3854 ;;		Unchanged: 0/0
  3855 ;; Data sizes:     COMMON   BANK0   BANK1   BANK2
  3856 ;;      Params:         0       0       0       0
  3857 ;;      Locals:         0       0       0       0
  3858 ;;      Temps:          0       0       0       0
  3859 ;;      Totals:         0       0       0       0
  3860 ;;Total ram usage:        0 bytes
  3861 ;; Hardware stack levels used:    1
  3862 ;; Hardware stack levels required when called:    1
  3863 ;; This function calls:
  3864 ;;		Nothing
  3865 ;; This function is called by:
  3866 ;;		_fputc
  3867 ;; This function uses a non-reentrant model
  3868 ;;
  3869                           psect	text9,local,class=CODE,delta=2,merge=1,group=2
  3870                           	file	"C:\Program Files (x86)\Microchip\xc8\v2.00\pic\sources\c99\common\putch.c"
  3871                           	line	7
  3872                           global __ptext9
  3873                           __ptext9:	;psect for function _putch
  3874  0524                     psect	text9
  3875                           	file	"C:\Program Files (x86)\Microchip\xc8\v2.00\pic\sources\c99\common\putch.c"
  3876                           	line	7
  3877                           	global	__size_of_putch
  3878                           	__size_of_putch	equ	__end_of_putch-_putch
  3879  0001                     	
  3880                           _putch:	
  3881  0524                     ;incstack = 0
  3882                           	opt	stack 10
  3883                           ; Regs used in _putch: [wreg]
  3884                           	line	9
  3885                           	
  3886                           l665:	
  3887  0524                     	return
  3888  0524  0008               	opt stack 0
  3889                           GLOBAL	__end_of_putch
  3890                           	__end_of_putch:
  3891  0525                     	signat	_putch,4217
  3892                           	global	_abs
  3893                           
  3894 ;; *************** function _abs *****************
  3895 ;; Defined at:
  3896 ;;		line 1 in file "C:\Program Files (x86)\Microchip\xc8\v2.00\pic\sources\c99\common\abs.c"
  3897 ;; Parameters:    Size  Location     Type
  3898 ;;  a               2   11[COMMON] int 
  3899 ;; Auto vars:     Size  Location     Type
  3900 ;;		None
  3901 ;; Return value:  Size  Location     Type
  3902 ;;                  2   11[COMMON] int 
  3903 ;; Registers used:
  3904 ;;		wreg, status,2, status,0
  3905 ;; Tracked objects:
  3906 ;;		On entry : 0/0
  3907 ;;		On exit  : 0/0
  3908 ;;		Unchanged: 0/0
  3909 ;; Data sizes:     COMMON   BANK0   BANK1   BANK2
  3910 ;;      Params:         2       0       0       0
  3911 ;;      Locals:         0       0       0       0
  3912 ;;      Temps:          0       2       0       0
  3913 ;;      Totals:         2       2       0       0
  3914 ;;Total ram usage:        4 bytes
  3915 ;; Hardware stack levels used:    1
  3916 ;; Hardware stack levels required when called:    1
  3917 ;; This function calls:
  3918 ;;		Nothing
  3919 ;; This function is called by:
  3920 ;;		_dtoa
  3921 ;; This function uses a non-reentrant model
  3922 ;;
  3923                           psect	text10,local,class=CODE,delta=2,merge=1,group=2
  3924                           	file	"C:\Program Files (x86)\Microchip\xc8\v2.00\pic\sources\c99\common\abs.c"
  3925                           	line	1
  3926                           global __ptext10
  3927                           __ptext10:	;psect for function _abs
  3928  04C6                     psect	text10
  3929                           	file	"C:\Program Files (x86)\Microchip\xc8\v2.00\pic\sources\c99\common\abs.c"
  3930                           	line	1
  3931                           	global	__size_of_abs
  3932                           	__size_of_abs	equ	__end_of_abs-_abs
  3933  001D                     	
  3934                           _abs:	
  3935  04C6                     ;incstack = 0
  3936                           	opt	stack 10
  3937                           ; Regs used in _abs: [wreg+status,2+status,0]
  3938                           	line	3
  3939                           	
  3940                           l993:	
  3941  04C6                     	movf	(abs@a+1),w
  3942  04C6  087C               	xorlw	80h
  3943  04C7  3A80               	movlb 0	; select bank0
  3944  04C8  0020               	movwf	(??_abs+0)+0
  3945  04C9  00A0               	movlw	(0)^80h
  3946  04CA  3080               	subwf	(??_abs+0)+0,w
  3947  04CB  0220               	skipz
  3948  04CC  1D03               	goto	u635
  3949  04CD  2CD0               	movlw	01h
  3950  04CE  3001               	subwf	(abs@a),w
  3951  04CF  027B               u635:
  3952  04D0                     
  3953                           	skipnc
  3954  04D0  1803               	goto	u631
  3955  04D1  2CD3               	goto	u630
  3956  04D2  2CD4               u631:
  3957  04D3                     	goto	l632
  3958  04D3  2CE1               u630:
  3959  04D4                     	
  3960                           l995:	
  3961  04D4                     	comf	(abs@a),w
  3962  04D4  097B               	movlb 0	; select bank0
  3963  04D5  0020               	movwf	(??_abs+0)+0
  3964  04D6  00A0               	comf	(abs@a+1),w
  3965  04D7  097C               	movwf	((??_abs+0)+0+1)
  3966  04D8  00A1               	incf	(??_abs+0)+0,f
  3967  04D9  0AA0               	skipnz
  3968  04DA  1903               	incf	((??_abs+0)+0+1),f
  3969  04DB  0AA1               	movf	0+(??_abs+0)+0,w
  3970  04DC  0820               	movwf	(?_abs)
  3971  04DD  00FB               	movf	1+(??_abs+0)+0,w
  3972  04DE  0821               	movwf	(?_abs+1)
  3973  04DF  00FC               	goto	l635
  3974  04E0  2CE2               	
  3975                           l632:	
  3976  04E1                     	goto	l635
  3977  04E1  2CE2               	
  3978                           l634:	
  3979  04E2                     	line	4
  3980                           	
  3981                           l635:	
  3982  04E2                     	return
  3983  04E2  0008               	opt stack 0
  3984                           GLOBAL	__end_of_abs
  3985                           	__end_of_abs:
  3986  04E3                     	signat	_abs,4218
  3987                           	global	___almod
  3988                           
  3989 ;; *************** function ___almod *****************
  3990 ;; Defined at:
  3991 ;;		line 5 in file "C:\Program Files (x86)\Microchip\xc8\v2.00\pic\sources\c99\common\almod.c"
  3992 ;; Parameters:    Size  Location     Type
  3993 ;;  divisor         4    0[COMMON] long 
  3994 ;;  dividend        4    4[COMMON] long 
  3995 ;; Auto vars:     Size  Location     Type
  3996 ;;  sign            1   10[COMMON] unsigned char 
  3997 ;;  counter         1    9[COMMON] unsigned char 
  3998 ;; Return value:  Size  Location     Type
  3999 ;;                  4    0[COMMON] long 
  4000 ;; Registers used:
  4001 ;;		wreg, status,2, status,0
  4002 ;; Tracked objects:
  4003 ;;		On entry : 0/0
  4004 ;;		On exit  : 0/0
  4005 ;;		Unchanged: 0/0
  4006 ;; Data sizes:     COMMON   BANK0   BANK1   BANK2
  4007 ;;      Params:         8       0       0       0
  4008 ;;      Locals:         2       0       0       0
  4009 ;;      Temps:          1       0       0       0
  4010 ;;      Totals:        11       0       0       0
  4011 ;;Total ram usage:       11 bytes
  4012 ;; Hardware stack levels used:    1
  4013 ;; Hardware stack levels required when called:    1
  4014 ;; This function calls:
  4015 ;;		Nothing
  4016 ;; This function is called by:
  4017 ;;		_dtoa
  4018 ;; This function uses a non-reentrant model
  4019 ;;
  4020                           psect	text11,local,class=CODE,delta=2,merge=1,group=1
  4021                           	file	"C:\Program Files (x86)\Microchip\xc8\v2.00\pic\sources\c99\common\almod.c"
  4022                           	line	5
  4023                           global __ptext11
  4024                           __ptext11:	;psect for function ___almod
  4025  02B2                     psect	text11
  4026                           	file	"C:\Program Files (x86)\Microchip\xc8\v2.00\pic\sources\c99\common\almod.c"
  4027                           	line	5
  4028                           	global	__size_of___almod
  4029                           	__size_of___almod	equ	__end_of___almod-___almod
  4030  0084                     	
  4031                           ___almod:	
  4032  02B2                     ;incstack = 0
  4033                           	opt	stack 10
  4034                           ; Regs used in ___almod: [wreg+status,2+status,0]
  4035                           	line	12
  4036                           	
  4037                           l1037:	
  4038  02B2                     	clrf	(___almod@sign)
  4039  02B2  01FA               	line	13
  4040                           	
  4041                           l1039:	
  4042  02B3                     	btfss	(___almod@dividend+3),7
  4043  02B3  1FF7               	goto	u741
  4044  02B4  2AB6               	goto	u740
  4045  02B5  2AB7               u741:
  4046  02B6                     	goto	l275
  4047  02B6  2AC4               u740:
  4048  02B7                     	line	14
  4049                           	
  4050                           l1041:	
  4051  02B7                     	comf	(___almod@dividend),f
  4052  02B7  09F4               	comf	(___almod@dividend+1),f
  4053  02B8  09F5               	comf	(___almod@dividend+2),f
  4054  02B9  09F6               	comf	(___almod@dividend+3),f
  4055  02BA  09F7               	incf	(___almod@dividend),f
  4056  02BB  0AF4               	skipnz
  4057  02BC  1903               	incf	(___almod@dividend+1),f
  4058  02BD  0AF5               	skipnz
  4059  02BE  1903               	incf	(___almod@dividend+2),f
  4060  02BF  0AF6               	skipnz
  4061  02C0  1903               	incf	(___almod@dividend+3),f
  4062  02C1  0AF7               	line	15
  4063                           	clrf	(___almod@sign)
  4064  02C2  01FA               	incf	(___almod@sign),f
  4065  02C3  0AFA               	line	16
  4066                           	
  4067                           l275:	
  4068  02C4                     	line	17
  4069                           	btfss	(___almod@divisor+3),7
  4070  02C4  1FF3               	goto	u751
  4071  02C5  2AC7               	goto	u750
  4072  02C6  2AC8               u751:
  4073  02C7                     	goto	l1045
  4074  02C7  2AD4               u750:
  4075  02C8                     	line	18
  4076                           	
  4077                           l1043:	
  4078  02C8                     	comf	(___almod@divisor),f
  4079  02C8  09F0               	comf	(___almod@divisor+1),f
  4080  02C9  09F1               	comf	(___almod@divisor+2),f
  4081  02CA  09F2               	comf	(___almod@divisor+3),f
  4082  02CB  09F3               	incf	(___almod@divisor),f
  4083  02CC  0AF0               	skipnz
  4084  02CD  1903               	incf	(___almod@divisor+1),f
  4085  02CE  0AF1               	skipnz
  4086  02CF  1903               	incf	(___almod@divisor+2),f
  4087  02D0  0AF2               	skipnz
  4088  02D1  1903               	incf	(___almod@divisor+3),f
  4089  02D2  0AF3               	goto	l1045
  4090  02D3  2AD4               	
  4091                           l276:	
  4092  02D4                     	line	19
  4093                           	
  4094                           l1045:	
  4095  02D4                     	movf	(___almod@divisor+3),w
  4096  02D4  0873               	iorwf	(___almod@divisor+2),w
  4097  02D5  0472               	iorwf	(___almod@divisor+1),w
  4098  02D6  0471               	iorwf	(___almod@divisor),w
  4099  02D7  0470               	skipnz
  4100  02D8  1903               	goto	u761
  4101  02D9  2ADB               	goto	u760
  4102  02DA  2ADC               u761:
  4103  02DB                     	goto	l1061
  4104  02DB  2B1B               u760:
  4105  02DC                     	line	20
  4106                           	
  4107                           l1047:	
  4108  02DC                     	clrf	(___almod@counter)
  4109  02DC  01F9               	incf	(___almod@counter),f
  4110  02DD  0AF9               	line	21
  4111                           	goto	l1051
  4112  02DE  2AEB               	
  4113                           l279:	
  4114  02DF                     	line	22
  4115                           	
  4116                           l1049:	
  4117  02DF                     	movlw	01h
  4118  02DF  3001               u775:
  4119  02E0                     	lslf	(___almod@divisor),f
  4120  02E0  35F0               	rlf	(___almod@divisor+1),f
  4121  02E1  0DF1               	rlf	(___almod@divisor+2),f
  4122  02E2  0DF2               	rlf	(___almod@divisor+3),f
  4123  02E3  0DF3               	decfsz	wreg,f
  4124  02E4  0B89               	goto	u775
  4125  02E5  2AE0               	line	23
  4126                           	movlw	low(01h)
  4127  02E6  3001               	movwf	(??___almod+0)+0
  4128  02E7  00F8               	movf	(??___almod+0)+0,w
  4129  02E8  0878               	addwf	(___almod@counter),f
  4130  02E9  07F9               	goto	l1051
  4131  02EA  2AEB               	line	24
  4132                           	
  4133                           l278:	
  4134  02EB                     	line	21
  4135                           	
  4136                           l1051:	
  4137  02EB                     	btfss	(___almod@divisor+3),(31)&7
  4138  02EB  1FF3               	goto	u781
  4139  02EC  2AEE               	goto	u780
  4140  02ED  2AEF               u781:
  4141  02EE                     	goto	l1049
  4142  02EE  2ADF               u780:
  4143  02EF                     	goto	l1053
  4144  02EF  2AF1               	
  4145                           l280:	
  4146  02F0                     	goto	l1053
  4147  02F0  2AF1               	line	25
  4148                           	
  4149                           l281:	
  4150  02F1                     	line	26
  4151                           	
  4152                           l1053:	
  4153  02F1                     	movf	(___almod@divisor+3),w
  4154  02F1  0873               	subwf	(___almod@dividend+3),w
  4155  02F2  0277               	skipz
  4156  02F3  1D03               	goto	u795
  4157  02F4  2AFF               	movf	(___almod@divisor+2),w
  4158  02F5  0872               	subwf	(___almod@dividend+2),w
  4159  02F6  0276               	skipz
  4160  02F7  1D03               	goto	u795
  4161  02F8  2AFF               	movf	(___almod@divisor+1),w
  4162  02F9  0871               	subwf	(___almod@dividend+1),w
  4163  02FA  0275               	skipz
  4164  02FB  1D03               	goto	u795
  4165  02FC  2AFF               	movf	(___almod@divisor),w
  4166  02FD  0870               	subwf	(___almod@dividend),w
  4167  02FE  0274               u795:
  4168  02FF                     	skipc
  4169  02FF  1C03               	goto	u791
  4170  0300  2B02               	goto	u790
  4171  0301  2B03               u791:
  4172  0302                     	goto	l1057
  4173  0302  2B0C               u790:
  4174  0303                     	line	27
  4175                           	
  4176                           l1055:	
  4177  0303                     	movf	(___almod@divisor),w
  4178  0303  0870               	subwf	(___almod@dividend),f
  4179  0304  02F4               	movf	(___almod@divisor+1),w
  4180  0305  0871               	subwfb	(___almod@dividend+1),f
  4181  0306  3BF5               	movf	(___almod@divisor+2),w
  4182  0307  0872               	subwfb	(___almod@dividend+2),f
  4183  0308  3BF6               	movf	(___almod@divisor+3),w
  4184  0309  0873               	subwfb	(___almod@dividend+3),f
  4185  030A  3BF7               	goto	l1057
  4186  030B  2B0C               	
  4187                           l282:	
  4188  030C                     	line	28
  4189                           	
  4190                           l1057:	
  4191  030C                     	movlw	01h
  4192  030C  3001               u805:
  4193  030D                     	lsrf	(___almod@divisor+3),f
  4194  030D  36F3               	rrf	(___almod@divisor+2),f
  4195  030E  0CF2               	rrf	(___almod@divisor+1),f
  4196  030F  0CF1               	rrf	(___almod@divisor),f
  4197  0310  0CF0               	decfsz	wreg,f
  4198  0311  0B89               	goto	u805
  4199  0312  2B0D               
  4200                           	line	29
  4201                           	
  4202                           l1059:	
  4203  0313                     	movlw	01h
  4204  0313  3001               	subwf	(___almod@counter),f
  4205  0314  02F9               	btfss	status,2
  4206  0315  1D03               	goto	u811
  4207  0316  2B18               	goto	u810
  4208  0317  2B19               u811:
  4209  0318                     	goto	l1053
  4210  0318  2AF1               u810:
  4211  0319                     	goto	l1061
  4212  0319  2B1B               	
  4213                           l283:	
  4214  031A                     	goto	l1061
  4215  031A  2B1B               	line	30
  4216                           	
  4217                           l277:	
  4218  031B                     	line	31
  4219                           	
  4220                           l1061:	
  4221  031B                     	movf	((___almod@sign)),w
  4222  031B  087A               	btfsc	status,2
  4223  031C  1903               	goto	u821
  4224  031D  2B1F               	goto	u820
  4225  031E  2B20               u821:
  4226  031F                     	goto	l1065
  4227  031F  2B2C               u820:
  4228  0320                     	line	32
  4229                           	
  4230                           l1063:	
  4231  0320                     	comf	(___almod@dividend),f
  4232  0320  09F4               	comf	(___almod@dividend+1),f
  4233  0321  09F5               	comf	(___almod@dividend+2),f
  4234  0322  09F6               	comf	(___almod@dividend+3),f
  4235  0323  09F7               	incf	(___almod@dividend),f
  4236  0324  0AF4               	skipnz
  4237  0325  1903               	incf	(___almod@dividend+1),f
  4238  0326  0AF5               	skipnz
  4239  0327  1903               	incf	(___almod@dividend+2),f
  4240  0328  0AF6               	skipnz
  4241  0329  1903               	incf	(___almod@dividend+3),f
  4242  032A  0AF7               	goto	l1065
  4243  032B  2B2C               	
  4244                           l284:	
  4245  032C                     	line	33
  4246                           	
  4247                           l1065:	
  4248  032C                     	movf	(___almod@dividend+3),w
  4249  032C  0877               	movwf	(?___almod+3)
  4250  032D  00F3               	movf	(___almod@dividend+2),w
  4251  032E  0876               	movwf	(?___almod+2)
  4252  032F  00F2               	movf	(___almod@dividend+1),w
  4253  0330  0875               	movwf	(?___almod+1)
  4254  0331  00F1               	movf	(___almod@dividend),w
  4255  0332  0874               	movwf	(?___almod)
  4256  0333  00F0               
  4257                           	goto	l285
  4258  0334  2B35               	
  4259                           l1067:	
  4260  0335                     	line	34
  4261                           	
  4262                           l285:	
  4263  0335                     	return
  4264  0335  0008               	opt stack 0
  4265                           GLOBAL	__end_of___almod
  4266                           	__end_of___almod:
  4267  0336                     	signat	___almod,8316
  4268                           	global	___aldiv
  4269                           
  4270 ;; *************** function ___aldiv *****************
  4271 ;; Defined at:
  4272 ;;		line 5 in file "C:\Program Files (x86)\Microchip\xc8\v2.00\pic\sources\c99\common\aldiv.c"
  4273 ;; Parameters:    Size  Location     Type
  4274 ;;  divisor         4    0[COMMON] long 
  4275 ;;  dividend        4    4[COMMON] long 
  4276 ;; Auto vars:     Size  Location     Type
  4277 ;;  quotient        4    2[BANK0 ] long 
  4278 ;;  sign            1    1[BANK0 ] unsigned char 
  4279 ;;  counter         1    0[BANK0 ] unsigned char 
  4280 ;; Return value:  Size  Location     Type
  4281 ;;                  4    0[COMMON] long 
  4282 ;; Registers used:
  4283 ;;		wreg, status,2, status,0
  4284 ;; Tracked objects:
  4285 ;;		On entry : 0/0
  4286 ;;		On exit  : 0/0
  4287 ;;		Unchanged: 0/0
  4288 ;; Data sizes:     COMMON   BANK0   BANK1   BANK2
  4289 ;;      Params:         8       0       0       0
  4290 ;;      Locals:         0       6       0       0
  4291 ;;      Temps:          1       0       0       0
  4292 ;;      Totals:         9       6       0       0
  4293 ;;Total ram usage:       15 bytes
  4294 ;; Hardware stack levels used:    1
  4295 ;; Hardware stack levels required when called:    1
  4296 ;; This function calls:
  4297 ;;		Nothing
  4298 ;; This function is called by:
  4299 ;;		_dtoa
  4300 ;; This function uses a non-reentrant model
  4301 ;;
  4302                           psect	text12,local,class=CODE,delta=2,merge=1,group=1
  4303                           	file	"C:\Program Files (x86)\Microchip\xc8\v2.00\pic\sources\c99\common\aldiv.c"
  4304                           	line	5
  4305                           global __ptext12
  4306                           __ptext12:	;psect for function ___aldiv
  4307  0219                     psect	text12
  4308                           	file	"C:\Program Files (x86)\Microchip\xc8\v2.00\pic\sources\c99\common\aldiv.c"
  4309                           	line	5
  4310                           	global	__size_of___aldiv
  4311                           	__size_of___aldiv	equ	__end_of___aldiv-___aldiv
  4312  0099                     	
  4313                           ___aldiv:	
  4314  0219                     ;incstack = 0
  4315                           	opt	stack 10
  4316                           ; Regs used in ___aldiv: [wreg+status,2+status,0]
  4317                           	line	13
  4318                           	
  4319                           l997:	
  4320  0219                     	movlb 0	; select bank0
  4321  0219  0020               	clrf	(___aldiv@sign)
  4322  021A  01A1               	line	14
  4323                           	
  4324                           l999:	
  4325  021B                     	btfss	(___aldiv@divisor+3),7
  4326  021B  1FF3               	goto	u641
  4327  021C  2A1E               	goto	u640
  4328  021D  2A1F               u641:
  4329  021E                     	goto	l262
  4330  021E  2A2C               u640:
  4331  021F                     	line	15
  4332                           	
  4333                           l1001:	
  4334  021F                     	comf	(___aldiv@divisor),f
  4335  021F  09F0               	comf	(___aldiv@divisor+1),f
  4336  0220  09F1               	comf	(___aldiv@divisor+2),f
  4337  0221  09F2               	comf	(___aldiv@divisor+3),f
  4338  0222  09F3               	incf	(___aldiv@divisor),f
  4339  0223  0AF0               	skipnz
  4340  0224  1903               	incf	(___aldiv@divisor+1),f
  4341  0225  0AF1               	skipnz
  4342  0226  1903               	incf	(___aldiv@divisor+2),f
  4343  0227  0AF2               	skipnz
  4344  0228  1903               	incf	(___aldiv@divisor+3),f
  4345  0229  0AF3               	line	16
  4346                           	clrf	(___aldiv@sign)
  4347  022A  01A1               	incf	(___aldiv@sign),f
  4348  022B  0AA1               	line	17
  4349                           	
  4350                           l262:	
  4351  022C                     	line	18
  4352                           	btfss	(___aldiv@dividend+3),7
  4353  022C  1FF7               	goto	u651
  4354  022D  2A2F               	goto	u650
  4355  022E  2A30               u651:
  4356  022F                     	goto	l1007
  4357  022F  2A40               u650:
  4358  0230                     	line	19
  4359                           	
  4360                           l1003:	
  4361  0230                     	comf	(___aldiv@dividend),f
  4362  0230  09F4               	comf	(___aldiv@dividend+1),f
  4363  0231  09F5               	comf	(___aldiv@dividend+2),f
  4364  0232  09F6               	comf	(___aldiv@dividend+3),f
  4365  0233  09F7               	incf	(___aldiv@dividend),f
  4366  0234  0AF4               	skipnz
  4367  0235  1903               	incf	(___aldiv@dividend+1),f
  4368  0236  0AF5               	skipnz
  4369  0237  1903               	incf	(___aldiv@dividend+2),f
  4370  0238  0AF6               	skipnz
  4371  0239  1903               	incf	(___aldiv@dividend+3),f
  4372  023A  0AF7               	line	20
  4373                           	
  4374                           l1005:	
  4375  023B                     	movlw	low(01h)
  4376  023B  3001               	movwf	(??___aldiv+0)+0
  4377  023C  00F8               	movf	(??___aldiv+0)+0,w
  4378  023D  0878               	xorwf	(___aldiv@sign),f
  4379  023E  06A1               	goto	l1007
  4380  023F  2A40               	line	21
  4381                           	
  4382                           l263:	
  4383  0240                     	line	22
  4384                           	
  4385                           l1007:	
  4386  0240                     	movlw	high highword(0)
  4387  0240  3000               	movwf	(___aldiv@quotient+3)
  4388  0241  00A5               	movlw	low highword(0)
  4389  0242  3000               	movwf	(___aldiv@quotient+2)
  4390  0243  00A4               	movlw	high(0)
  4391  0244  3000               	movwf	(___aldiv@quotient+1)
  4392  0245  00A3               	movlw	low(0)
  4393  0246  3000               	movwf	(___aldiv@quotient)
  4394  0247  00A2               
  4395                           	line	23
  4396                           	
  4397                           l1009:	
  4398  0248                     	movf	(___aldiv@divisor+3),w
  4399  0248  0873               	iorwf	(___aldiv@divisor+2),w
  4400  0249  0472               	iorwf	(___aldiv@divisor+1),w
  4401  024A  0471               	iorwf	(___aldiv@divisor),w
  4402  024B  0470               	skipnz
  4403  024C  1903               	goto	u661
  4404  024D  2A4F               	goto	u660
  4405  024E  2A50               u661:
  4406  024F                     	goto	l1029
  4407  024F  2A97               u660:
  4408  0250                     	line	24
  4409                           	
  4410                           l1011:	
  4411  0250                     	clrf	(___aldiv@counter)
  4412  0250  01A0               	incf	(___aldiv@counter),f
  4413  0251  0AA0               	line	25
  4414                           	goto	l1015
  4415  0252  2A5F               	
  4416                           l266:	
  4417  0253                     	line	26
  4418                           	
  4419                           l1013:	
  4420  0253                     	movlw	01h
  4421  0253  3001               u675:
  4422  0254                     	lslf	(___aldiv@divisor),f
  4423  0254  35F0               	rlf	(___aldiv@divisor+1),f
  4424  0255  0DF1               	rlf	(___aldiv@divisor+2),f
  4425  0256  0DF2               	rlf	(___aldiv@divisor+3),f
  4426  0257  0DF3               	decfsz	wreg,f
  4427  0258  0B89               	goto	u675
  4428  0259  2A54               	line	27
  4429                           	movlw	low(01h)
  4430  025A  3001               	movwf	(??___aldiv+0)+0
  4431  025B  00F8               	movf	(??___aldiv+0)+0,w
  4432  025C  0878               	addwf	(___aldiv@counter),f
  4433  025D  07A0               	goto	l1015
  4434  025E  2A5F               	line	28
  4435                           	
  4436                           l265:	
  4437  025F                     	line	25
  4438                           	
  4439                           l1015:	
  4440  025F                     	btfss	(___aldiv@divisor+3),(31)&7
  4441  025F  1FF3               	goto	u681
  4442  0260  2A62               	goto	u680
  4443  0261  2A63               u681:
  4444  0262                     	goto	l1013
  4445  0262  2A53               u680:
  4446  0263                     	goto	l1017
  4447  0263  2A65               	
  4448                           l267:	
  4449  0264                     	goto	l1017
  4450  0264  2A65               	line	29
  4451                           	
  4452                           l268:	
  4453  0265                     	line	30
  4454                           	
  4455                           l1017:	
  4456  0265                     	movlw	01h
  4457  0265  3001               u695:
  4458  0266                     	lslf	(___aldiv@quotient),f
  4459  0266  35A2               	rlf	(___aldiv@quotient+1),f
  4460  0267  0DA3               	rlf	(___aldiv@quotient+2),f
  4461  0268  0DA4               	rlf	(___aldiv@quotient+3),f
  4462  0269  0DA5               	decfsz	wreg,f
  4463  026A  0B89               	goto	u695
  4464  026B  2A66               	line	31
  4465                           	
  4466                           l1019:	
  4467  026C                     	movf	(___aldiv@divisor+3),w
  4468  026C  0873               	subwf	(___aldiv@dividend+3),w
  4469  026D  0277               	skipz
  4470  026E  1D03               	goto	u705
  4471  026F  2A7A               	movf	(___aldiv@divisor+2),w
  4472  0270  0872               	subwf	(___aldiv@dividend+2),w
  4473  0271  0276               	skipz
  4474  0272  1D03               	goto	u705
  4475  0273  2A7A               	movf	(___aldiv@divisor+1),w
  4476  0274  0871               	subwf	(___aldiv@dividend+1),w
  4477  0275  0275               	skipz
  4478  0276  1D03               	goto	u705
  4479  0277  2A7A               	movf	(___aldiv@divisor),w
  4480  0278  0870               	subwf	(___aldiv@dividend),w
  4481  0279  0274               u705:
  4482  027A                     	skipc
  4483  027A  1C03               	goto	u701
  4484  027B  2A7D               	goto	u700
  4485  027C  2A7E               u701:
  4486  027D                     	goto	l1025
  4487  027D  2A88               u700:
  4488  027E                     	line	32
  4489                           	
  4490                           l1021:	
  4491  027E                     	movf	(___aldiv@divisor),w
  4492  027E  0870               	subwf	(___aldiv@dividend),f
  4493  027F  02F4               	movf	(___aldiv@divisor+1),w
  4494  0280  0871               	subwfb	(___aldiv@dividend+1),f
  4495  0281  3BF5               	movf	(___aldiv@divisor+2),w
  4496  0282  0872               	subwfb	(___aldiv@dividend+2),f
  4497  0283  3BF6               	movf	(___aldiv@divisor+3),w
  4498  0284  0873               	subwfb	(___aldiv@dividend+3),f
  4499  0285  3BF7               	line	33
  4500                           	
  4501                           l1023:	
  4502  0286                     	bsf	(___aldiv@quotient)+(0/8),(0)&7
  4503  0286  1422               	goto	l1025
  4504  0287  2A88               	line	34
  4505                           	
  4506                           l269:	
  4507  0288                     	line	35
  4508                           	
  4509                           l1025:	
  4510  0288                     	movlw	01h
  4511  0288  3001               u715:
  4512  0289                     	lsrf	(___aldiv@divisor+3),f
  4513  0289  36F3               	rrf	(___aldiv@divisor+2),f
  4514  028A  0CF2               	rrf	(___aldiv@divisor+1),f
  4515  028B  0CF1               	rrf	(___aldiv@divisor),f
  4516  028C  0CF0               	decfsz	wreg,f
  4517  028D  0B89               	goto	u715
  4518  028E  2A89               
  4519                           	line	36
  4520                           	
  4521                           l1027:	
  4522  028F                     	movlw	01h
  4523  028F  3001               	subwf	(___aldiv@counter),f
  4524  0290  02A0               	btfss	status,2
  4525  0291  1D03               	goto	u721
  4526  0292  2A94               	goto	u720
  4527  0293  2A95               u721:
  4528  0294                     	goto	l1017
  4529  0294  2A65               u720:
  4530  0295                     	goto	l1029
  4531  0295  2A97               	
  4532                           l270:	
  4533  0296                     	goto	l1029
  4534  0296  2A97               	line	37
  4535                           	
  4536                           l264:	
  4537  0297                     	line	38
  4538                           	
  4539                           l1029:	
  4540  0297                     	movf	((___aldiv@sign)),w
  4541  0297  0821               	btfsc	status,2
  4542  0298  1903               	goto	u731
  4543  0299  2A9B               	goto	u730
  4544  029A  2A9C               u731:
  4545  029B                     	goto	l1033
  4546  029B  2AA8               u730:
  4547  029C                     	line	39
  4548                           	
  4549                           l1031:	
  4550  029C                     	comf	(___aldiv@quotient),f
  4551  029C  09A2               	comf	(___aldiv@quotient+1),f
  4552  029D  09A3               	comf	(___aldiv@quotient+2),f
  4553  029E  09A4               	comf	(___aldiv@quotient+3),f
  4554  029F  09A5               	incf	(___aldiv@quotient),f
  4555  02A0  0AA2               	skipnz
  4556  02A1  1903               	incf	(___aldiv@quotient+1),f
  4557  02A2  0AA3               	skipnz
  4558  02A3  1903               	incf	(___aldiv@quotient+2),f
  4559  02A4  0AA4               	skipnz
  4560  02A5  1903               	incf	(___aldiv@quotient+3),f
  4561  02A6  0AA5               	goto	l1033
  4562  02A7  2AA8               	
  4563                           l271:	
  4564  02A8                     	line	40
  4565                           	
  4566                           l1033:	
  4567  02A8                     	movf	(___aldiv@quotient+3),w
  4568  02A8  0825               	movwf	(?___aldiv+3)
  4569  02A9  00F3               	movf	(___aldiv@quotient+2),w
  4570  02AA  0824               	movwf	(?___aldiv+2)
  4571  02AB  00F2               	movf	(___aldiv@quotient+1),w
  4572  02AC  0823               	movwf	(?___aldiv+1)
  4573  02AD  00F1               	movf	(___aldiv@quotient),w
  4574  02AE  0822               	movwf	(?___aldiv)
  4575  02AF  00F0               
  4576                           	goto	l272
  4577  02B0  2AB1               	
  4578                           l1035:	
  4579  02B1                     	line	41
  4580                           	
  4581                           l272:	
  4582  02B1                     	return
  4583  02B1  0008               	opt stack 0
  4584                           GLOBAL	__end_of___aldiv
  4585                           	__end_of___aldiv:
  4586  02B2                     	signat	___aldiv,8316
  4587                           	global	_isr
  4588                           
  4589 ;; *************** function _isr *****************
  4590 ;; Defined at:
  4591 ;;		line 19 in file "PTSymmetryController.c"
  4592 ;; Parameters:    Size  Location     Type
  4593 ;;		None
  4594 ;; Auto vars:     Size  Location     Type
  4595 ;;		None
  4596 ;; Return value:  Size  Location     Type
  4597 ;;                  1    wreg      void 
  4598 ;; Registers used:
  4599 ;;		None
  4600 ;; Tracked objects:
  4601 ;;		On entry : 0/0
  4602 ;;		On exit  : 0/0
  4603 ;;		Unchanged: 0/0
  4604 ;; Data sizes:     COMMON   BANK0   BANK1   BANK2
  4605 ;;      Params:         0       0       0       0
  4606 ;;      Locals:         0       0       0       0
  4607 ;;      Temps:          0       0       0       0
  4608 ;;      Totals:         0       0       0       0
  4609 ;;Total ram usage:        0 bytes
  4610 ;; Hardware stack levels used:    1
  4611 ;; This function calls:
  4612 ;;		Nothing
  4613 ;; This function is called by:
  4614 ;;		Interrupt level 1
  4615 ;; This function uses a non-reentrant model
  4616 ;;
  4617                           psect	intentry,class=CODE,delta=2
  4618                           global __pintentry
  4619                           __pintentry:
  4620  0004                     psect	intentry
  4621                           	file	"PTSymmetryController.c"
  4622                           	line	19
  4623                           	global	__size_of_isr
  4624                           	__size_of_isr	equ	__end_of_isr-_isr
  4625  0004                     	
  4626                           _isr:	
  4627  0004                     ;incstack = 0
  4628                           	opt	stack 7
  4629                           	bsf int$flags,0 ;set compiler interrupt flag (level 1)
  4630  0004  147E               ; Regs used in _isr: []
  4631                           psect	intentry
  4632                           	pagesel	$
  4633  0005  3180               	line	21
  4634                           	
  4635                           i1l21:	
  4636  0006                     	bcf int$flags,0 ;clear compiler interrupt flag (level 1)
  4637  0006  107E               	retfie
  4638  0007  0009               	opt stack 0
  4639                           GLOBAL	__end_of_isr
  4640                           	__end_of_isr:
  4641  0008                     	signat	_isr,89
  4642                           global	___latbits
  4643                           ___latbits	equ	0
  4644  0000                     	global	btemp
  4645                           	btemp set 07Eh
  4646  007E                     
  4647                           	DABS	1,126,2	;btemp
  4648                           	global	int$flags
  4649                           	int$flags	set btemp
  4650  007E                     	global	wtemp0
  4651                           	wtemp0 set btemp+0
  4652  007E                     	end


Data Sizes:
    Strings     81
    Constant    0
    Data        0
    BSS         40
    Persistent  0
    Stack       0

Auto Spaces:
    Space          Size  Autos    Used
    COMMON           14     14      14
    BANK0            80     64      72
    BANK1            80      0      32
    BANK2            80      0       0

Pointer List with Targets:

    strlen@s	PTR const unsigned char  size(1) Largest target is 32
		 -> dbuf(BANK1[32]), 

    strlen@a	PTR const unsigned char  size(1) Largest target is 32
		 -> dbuf(BANK1[32]), 

    printf@fmt	PTR const unsigned char  size(2) Largest target is 46
		 -> STR_3(CODE[11]), STR_2(CODE[46]), STR_1(CODE[24]), 

    printf@ap	PTR void [1] size(1) Largest target is 2
		 -> ?_printf(BANK0[2]), 

    fputs@s	PTR const unsigned char  size(1) Largest target is 32
		 -> dbuf(BANK1[32]), 

    fputs@fp	PTR struct _IO_FILE size(1) Largest target is 0
		 -> NULL(NULL[0]), 

    S529_IO_FILE$buffer	PTR unsigned char  size(1) Largest target is 0

    fputc@fp.buffer	PTR unsigned char  size(1) Largest target is 0

    fputc@fp	PTR struct _IO_FILE size(1) Largest target is 0
		 -> NULL(NULL[0]), 

    vfprintf@ap	PTR PTR void  size(1) Largest target is 1
		 -> printf@ap(BANK0[1]), 

    vfprintf@fp	PTR struct _IO_FILE size(1) Largest target is 0
		 -> NULL(NULL[0]), 

    vfprintf@fmt	PTR const unsigned char  size(2) Largest target is 46
		 -> STR_3(CODE[11]), STR_2(CODE[46]), STR_1(CODE[24]), 

    vfprintf@cfmt	PTR unsigned char  size(2) Largest target is 46
		 -> STR_3(CODE[11]), STR_2(CODE[46]), STR_1(CODE[24]), 

    vfpfcnvrt@fp	PTR struct _IO_FILE size(1) Largest target is 0
		 -> NULL(NULL[0]), 

    vfpfcnvrt@ap	PTR PTR void  size(1) Largest target is 1
		 -> printf@ap(BANK0[1]), 

    vfpfcnvrt@fmt	PTR PTR unsigned char  size(1) Largest target is 2
		 -> vfprintf@cfmt(BANK0[2]), 

    dtoa@fp	PTR struct _IO_FILE size(1) Largest target is 0
		 -> NULL(NULL[0]), 

    pad@fp	PTR struct _IO_FILE size(1) Largest target is 0
		 -> NULL(NULL[0]), 

    pad@buf	PTR unsigned char  size(1) Largest target is 32
		 -> dbuf(BANK1[32]), 


Critical Paths under _main in COMMON

    _main->_printf
    _dtoa->_abs
    _dtoa->_pad
    _pad->_fputs
    _fputs->_fputc
    _abs->___almod

Critical Paths under _isr in COMMON

    None.

Critical Paths under _main in BANK0

    _main->_printf
    _printf->_vfprintf
    _vfprintf->_vfpfcnvrt
    _vfpfcnvrt->_dtoa
    _dtoa->_pad
    _pad->_fputs

Critical Paths under _isr in BANK0

    None.

Critical Paths under _main in BANK1

    None.

Critical Paths under _isr in BANK1

    None.

Critical Paths under _main in BANK2

    None.

Critical Paths under _isr in BANK2

    None.

Call Graph Tables:

 ---------------------------------------------------------------------------------
 (Depth) Function   	        Calls       Base Space   Used Autos Params    Refs
 ---------------------------------------------------------------------------------
 (0) _main                                                 2     2      0    5956
                                             62 BANK0      2     2      0
                             _printf
 ---------------------------------------------------------------------------------
 (1) _printf                                              10     4      6    5956
                                             13 COMMON     1     1      0
                                             53 BANK0      9     3      6
                           _vfprintf
 ---------------------------------------------------------------------------------
 (2) _vfprintf                                             8     5      3    5674
                                             45 BANK0      8     5      3
                          _vfpfcnvrt
 ---------------------------------------------------------------------------------
 (3) _vfpfcnvrt                                           32    30      2    5346
                                             33 BANK0     12    10      2
                               _dtoa
                              _fputc
 ---------------------------------------------------------------------------------
 (4) _dtoa                                                21    17      4    4045
                                             12 BANK0     21    17      4
                            ___aldiv
                            ___almod
                                _abs
                                _pad
 ---------------------------------------------------------------------------------
 (5) _pad                                                  9     6      3    2422
                                             12 COMMON     1     1      0
                                              4 BANK0      8     5      3
                              _fputc
                              _fputs
                             _strlen
 ---------------------------------------------------------------------------------
 (6) _strlen                                               8     6      2     123
                                              0 COMMON     8     6      2
 ---------------------------------------------------------------------------------
 (6) _fputs                                                8     7      1    1083
                                              8 COMMON     4     3      1
                                              0 BANK0      4     4      0
                              _fputc
 ---------------------------------------------------------------------------------
 (4) _fputc                                                8     5      3     768
                                              0 COMMON     8     5      3
                              _putch
 ---------------------------------------------------------------------------------
 (5) _putch                                                1     1      0       0
 ---------------------------------------------------------------------------------
 (5) _abs                                                  4     2      2     142
                                             11 COMMON     2     0      2
                                              0 BANK0      2     2      0
                            ___almod (ARG)
 ---------------------------------------------------------------------------------
 (5) ___almod                                             11     3      8     448
                                              0 COMMON    11     3      8
 ---------------------------------------------------------------------------------
 (5) ___aldiv                                             15     7      8     452
                                              0 COMMON     9     1      8
                                              0 BANK0      6     6      0
 ---------------------------------------------------------------------------------
 Estimated maximum stack depth 6
 ---------------------------------------------------------------------------------
 (Depth) Function   	        Calls       Base Space   Used Autos Params    Refs
 ---------------------------------------------------------------------------------
 (9) _isr                                                  0     0      0       0
 ---------------------------------------------------------------------------------
 Estimated maximum stack depth 9
 ---------------------------------------------------------------------------------

 Call Graph Graphs:

 _main (ROOT)
   _printf
     _vfprintf
       _vfpfcnvrt
         _dtoa
           ___aldiv
           ___almod
           _abs
             ___almod (ARG)
           _pad
             _fputc
               _putch
             _fputs
               _fputc
                 _putch
             _strlen
         _fputc
           _putch

 _isr (ROOT)

 Address spaces:
Name               Size   Autos  Total    Cost      Usage
BIGRAM              F0      0       0       0        0.0%
EEDATA             100      0       0       0        0.0%
NULL                 0      0       0       0        0.0%
CODE                 0      0       0       0        0.0%
BITCOMMON            E      0       0       1        0.0%
BITSFR0              0      0       0       1        0.0%
SFR0                 0      0       0       1        0.0%
COMMON               E      E       E       2      100.0%
BITSFR1              0      0       0       2        0.0%
SFR1                 0      0       0       2        0.0%
BITSFR2              0      0       0       3        0.0%
SFR2                 0      0       0       3        0.0%
STACK                0      0       0       3        0.0%
BITSFR3              0      0       0       4        0.0%
SFR3                 0      0       0       4        0.0%
ABS                  0      0      76       4        0.0%
BITBANK0            50      0       0       5        0.0%
BITSFR4              0      0       0       5        0.0%
SFR4                 0      0       0       5        0.0%
BANK0               50     40      48       6       90.0%
BITSFR5              0      0       0       6        0.0%
SFR5                 0      0       0       6        0.0%
BITBANK1            50      0       0       7        0.0%
BITSFR6              0      0       0       7        0.0%
SFR6                 0      0       0       7        0.0%
BANK1               50      0      20       8       40.0%
BITSFR7              0      0       0       8        0.0%
SFR7                 0      0       0       8        0.0%
BITBANK2            50      0       0       9        0.0%
BITSFR8              0      0       0       9        0.0%
SFR8                 0      0       0       9        0.0%
BANK2               50      0       0      10        0.0%
BITSFR9              0      0       0      10        0.0%
SFR9                 0      0       0      10        0.0%
BITSFR10             0      0       0      11        0.0%
SFR10                0      0       0      11        0.0%
DATA                 0      0      76      11        0.0%
BITSFR11             0      0       0      12        0.0%
SFR11                0      0       0      12        0.0%
BITSFR12             0      0       0      13        0.0%
SFR12                0      0       0      13        0.0%
BITSFR13             0      0       0      14        0.0%
SFR13                0      0       0      14        0.0%
BITSFR14             0      0       0      15        0.0%
SFR14                0      0       0      15        0.0%
BITSFR15             0      0       0      16        0.0%
SFR15                0      0       0      16        0.0%
BITSFR16             0      0       0      17        0.0%
SFR16                0      0       0      17        0.0%
BITSFR17             0      0       0      18        0.0%
SFR17                0      0       0      18        0.0%
BITSFR18             0      0       0      19        0.0%
SFR18                0      0       0      19        0.0%
BITSFR19             0      0       0      20        0.0%
SFR19                0      0       0      20        0.0%
BITSFR20             0      0       0      21        0.0%
SFR20                0      0       0      21        0.0%
BITSFR21             0      0       0      22        0.0%
SFR21                0      0       0      22        0.0%
BITSFR22             0      0       0      23        0.0%
SFR22                0      0       0      23        0.0%
BITSFR23             0      0       0      24        0.0%
SFR23                0      0       0      24        0.0%
BITSFR24             0      0       0      25        0.0%
SFR24                0      0       0      25        0.0%
BITSFR25             0      0       0      26        0.0%
SFR25                0      0       0      26        0.0%
BITSFR26             0      0       0      27        0.0%
SFR26                0      0       0      27        0.0%
BITSFR27             0      0       0      28        0.0%
SFR27                0      0       0      28        0.0%
BITSFR28             0      0       0      29        0.0%
SFR28                0      0       0      29        0.0%
BITSFR29             0      0       0      30        0.0%
SFR29                0      0       0      30        0.0%
BITSFR30             0      0       0      31        0.0%
SFR30                0      0       0      31        0.0%
BITSFR31             0      0       0      32        0.0%
SFR31                0      0       0      32        0.0%


Microchip Technology PIC Macro Assembler V2.00 build -1524193055 
Symbol Table                                                                                   Tue Oct 23 23:31:01 2018

             __CFG_CP$ON 0000                       l30 03C3                       l31 03C7  
                     l32 03D0                       l33 03D0                       l34 03D1  
                     l26 03BC                       l35 03D2                       l27 03BC  
                     l36 03D3                       l28 03C1                       l37 03D5  
                     l29 03C3              __CFG_CPD$ON 0000              __CFG_LVP$ON 0000  
                    l150 0354                      l151 0374                      l152 0381  
                    l144 0345                      l153 038E                      l161 0063  
                    l146 034F                      l170 0105                      l162 0076  
                    l171 0107                      l148 0351                      l172 0130  
                    l164 0072                      l156 0043                      l149 0366  
                    l165 00CE                      l157 004B                      l270 0296  
                    l262 022C                      l174 0113                      l166 0080  
                    l182 01F1                      l190 0463                      l271 02A8  
                    l263 0240                      l159 005E                      l183 01BA  
                    l191 0451                      l272 02B1                      l264 0297  
                    l280 02F0                      l176 0122                      l168 0106  
                    l192 046D                      l265 025F                      l281 02F1  
                    l185 018A                      l193 0472                      l266 0253  
                    l282 030C                      l178 0127                      l186 0218  
                    l267 0264                      l283 031A                      l275 02C4  
                    l179 0143                      l187 01E5                      l268 0265  
                    l284 032C                      l276 02D4                      l269 0288  
                    l285 0335                      l277 031B                      l278 02EB  
                    l279 02DF                      l632 04E1                      l640 03E6  
                    l634 04E2                      l642 03E1                      l635 04E2  
                    l643 0418                      l644 0417                      l652 048C  
                    l653 0478                      l646 040E                      l654 049C  
                    l670 04B1                      l662 0512                      l647 0419  
                    l655 049C                      l671 04C5                      l665 0524  
                    l668 04A8                      l941 03D6                      l669 04A3  
                    l951 040E                      l943 03DB                      l953 0419  
                    l945 03E1                      l961 048C                      l947 03E6  
                    l955 0475                      l971 04C5                      l963 049E  
                    l949 03F0                      l957 0478                      l965 04A3  
                    l981 034F                      l973 0338                      l959 0486  
                    l967 04A8                      l991 038E                      l983 0354  
                    l975 033C                      l993 04C6                      l969 04B1  
                    l985 0360                      l977 0345                      l995 04D4  
                    l987 0366                      l979 034A                      l997 0219  
                    l989 0379                      l999 021B                      _RA4 0064  
                    _RA5 0065                      _RC1 0071                      _RC2 0072  
                    u600 034A                      u601 0349                      u530 03DB  
                    u610 0374                      u531 03DA                      u611 0373  
                    u700 027E                      u540 03E0                      u620 0379  
                    u701 027D                      u541 03DF                      u621 0378  
                    u630 04D4                      u550 03F0                      u631 04D3  
                    u551 03EF                      u615 0370                      u720 0295  
                    u640 021F                      u560 040D                      u721 0294  
                    u705 027A                      u641 021E                      u561 040C  
                    u730 029C                      u650 0230                      u810 0319  
                    u570 049B                      u731 029B                      u715 0289  
                    u651 022F                      u811 0318                      u635 04D0  
                    u571 049A                      u660 0250                      u820 0320  
                    u740 02B7                      u580 04B0                      u900 00DB  
                    u661 024F                      u821 031F                      u805 030D  
                    u741 02B6                      u565 0409                      u581 04AF  
                    u901 00DA                      u750 02C8                      u590 033C  
                    u910 00E4                      u830 002B                      u751 02C7  
                    u591 033B                      u911 00E3                      u831 0029  
                    u680 0263                      u760 02DC                      u920 00F1  
                    u840 002C                      u681 0262                      u761 02DB  
                    u921 00F0                      u905 00D7                      u930 00FF  
                    u850 0038                      u675 0254                      u931 00FE  
                    u851 0037                      u780 02EF                      u940 0104  
                    u860 0047                      u781 02EE                      u941 0103  
                    u925 00ED                      u861 0046                      u790 0303  
                    u950 010E                      u870 0058                      u695 0266  
                    u791 0302                      u775 02E0                      u951 010D  
                    u935 00FB                      u871 0057                      u960 0112  
                    u880 006D                      u961 0111                      u881 006C  
                    u970 011D                      u890 0071                      u795 02FF  
                    u971 011C                      u891 0070                      u875 0054  
                    u980 0157                      u981 0156                      u990 0178  
                    u991 0177                      _abs 04C6                      _pad 0336  
                    _isr 0004                      wreg 0009                     l1001 021F  
                   l1011 0250                     l1003 0230                     l1021 027E  
                   l1013 0253                     l1005 023B                     l1101 00DB  
                   l1031 029C                     l1023 0286                     l1015 025F  
                   l1007 0240                     l1111 010E                     l1103 00E4  
                   l1033 02A8                     l1025 0288                     l1017 0265  
                   l1009 0248                     l1041 02B7                     l1121 0127  
                   l1113 0113                     l1105 00F1                     l1201 03D0  
                   l1035 02B1                     l1027 028F                     l1019 026C  
                   l1051 02EB                     l1043 02C8                     l1115 0117  
                   l1123 0130                     l1107 00FF                     l1131 015F  
                   ?_abs 007B                     l1029 0297                     l1053 02F1  
                   l1061 031B                     l1045 02D4                     l1037 02B2  
                   l1125 0143                     l1117 011D                     l1109 0107  
                   l1141 0192                     l1133 0163                     l1063 0320  
                   l1055 0303                     l1047 02DC                     l1039 02B3  
                   l1119 0122                     l1071 0032                     l1151 01D3  
                   l1143 01A7                     l1135 0167                     l1127 0146  
                   l1065 032C                     l1057 030C                     l1049 02DF  
                   l1081 0067                     l1073 0038                     l1161 01F0  
                   l1153 01DE                     l1145 01B9                     l1137 0178  
                   l1129 0157                     l1067 0335                     l1059 0313  
                   l1091 0085                     l1083 006D                     l1075 0047  
                   l1155 01E4                     l1147 01BA                     l1139 018A  
                   l1163 01F1                     l1171 044A                     l1093 00A9  
                   l1085 0072                     l1077 0058                     l1069 001E  
                   l1165 020A                     l1149 01CB                     l1157 01E5  
                   l1181 0472                     l1173 044E                     l1095 00AD  
                   l1087 007A                     l1079 005E                     l1167 0213  
                   l1159 01ED                     l1175 0451                     l1183 04FB  
                   l1191 0391                     l1097 00B1                     l1089 0080  
                   l1169 0218                     l1177 0463                     l1185 0500  
                   l1193 0396                     l1099 00CE                     l1179 046D  
                   l1187 0512                     l1195 0398                     l1197 03A6  
                   l1189 038F                     l1199 03C8                     ?_pad 0024  
                   ?_isr 0070                     STR_1 04E3                     STR_2 041A  
                   STR_3 0513                     u1000 0189                     u1001 0188  
                   u1010 01CB                     u1011 01CA                     u1020 046C  
                   u1021 046B                     u1030 03C1                     u1031 03C0  
                   u1040 03C7                     u1041 03C6                     u1057 03AC  
                   i1l21 0006             __CFG_WRT$ALL 0000                     abs@a 007B  
                   _dbuf 00A0                     _main 038F                     _dtoa 001C  
                   _prec 0064                     _nout 0060                     pad@i 0027  
                   pad@p 0025                     fsr0h 0005                     fsr1h 0007  
                   indf0 0000                     fsr0l 0004                     indf1 0001  
                   fsr1l 0006                     pad@w 0029                     btemp 007E  
          __CFG_BOREN$ON 0000                     start 0008            __CFG_MCLRE$ON 0000  
                  ??_abs 0020                    ??_pad 007C                    ??_isr 0070  
        __end_of___aldiv 02B2          __end_of___almod 0336                    ?_main 0070  
                  ?_dtoa 002C            __CFG_WDTE$OFF 0000           __CFG_DEBUG$OFF 0000  
           vfpfcnvrt@fmt 0041                    _TRISA 008C                    _TRISC 008E  
          __CFG_PWRTE$ON 0000           __CFG_FCMEN$OFF 0000                    _flags 0066  
                  _fputc 03D6                    _fputs 0473                    pad@fp 002B  
                  _width 0062                    _putch 0524                    dtoa@d 002C  
                  dtoa@i 003F                    dtoa@n 003B                    dtoa@p 0034  
                  dtoa@s 0039                    dtoa@w 0037           __CFG_BORV$HIGH 0000  
                  status 0003                    wtemp0 007E           __CFG_CSWEN$OFF 0000  
        __initialization 0009             __end_of_main 03D6             __end_of_dtoa 0144  
                 ??_main 005E                   ??_dtoa 0030                   ?_fputc 0070  
                 ?_fputs 0078                   ?_putch 0070             vfprintf@cfmt 0053  
              ??___aldiv 0078                ??___almod 0078           __CFG_STVREN$ON 0000  
                 _printf 04FB                   pad@buf 0024                   dtoa@fp 0036  
                 _strlen 049D                   fputc@c 0070                   fputs@c 0020  
                 fputs@i 0021                   fputs@s 0023                   putch@c 0070  
       __end_of_vfprintf 0473  __end_of__initialization 0019          __CFG_FEXTOSC$HS 0000  
         __pcstackCOMMON 0070            __end_of_fputc 041A            __end_of_fputs 049D  
          __end_of_putch 0525                  ??_fputc 0073                  ??_fputs 0079  
                ??_putch 0070               __pbssBANK0 0060               __pbssBANK1 00A0  
             __pmaintext 038F          __CFG_PPS1WAY$ON 0000               __pintentry 0004  
                ?_printf 0055      __CFG_RSTOSC$HFINT32 0000                  ?_strlen 0070  
     __size_of_vfpfcnvrt 00D5                  ___aldiv 0219                  ___almod 02B2  
              ?_vfprintf 004D                  __ptext1 04FB                  __ptext2 0448  
                __ptext3 0144                  __ptext4 001C                  __ptext5 0336  
                __ptext6 049D                  __ptext7 0473                  __ptext8 03D6  
                __ptext9 0524          __size_of_printf 0018          __size_of_strlen 0029  
           __size_of_abs 001D             __size_of_pad 0059             __size_of_isr 0004  
       ___aldiv@dividend 0074                  clrloop0 051F     end_of_initialization 0019  
                fputc@fp 0072                  fputs@fp 0078        __end_of_vfpfcnvrt 0219  
       ___aldiv@quotient 0022               ??_vfprintf 0050                  strlen@a 0076  
                strlen@s 0077              vfpfcnvrt@ap 0042              vfpfcnvrt@fp 004C  
            vfpfcnvrt@ll 0048           __end_of_printf 0513           __end_of_strlen 04C6  
    start_initialization 0009              __end_of_abs 04E3              __end_of_pad 038F  
            __end_of_isr 0008         __CFG_LPBOREN$OFF 0000              vfprintf@fmt 004D  
               ??_printf 007D                 ??_strlen 0072                ___latbits 0000  
          __pcstackBANK0 0020                 ?___aldiv 0070                 ?___almod 0070  
       ___almod@dividend 0074        __size_of_vfprintf 002B           __size_of_fputc 0044  
         __size_of_fputs 002A           __size_of_putch 0001          ___aldiv@divisor 0070  
        ___aldiv@counter 0020                clear_ram0 051E                _vfpfcnvrt 0144  
             vfprintf@ap 004F               vfprintf@fp 0052         __size_of___aldiv 0099  
       __size_of___almod 0084               ?_vfpfcnvrt 0041                 _dtoa$235 0032  
               __ptext10 04C6                 __ptext11 02B2                 __ptext12 0219  
        ___almod@divisor 0070          ___almod@counter 0079            __size_of_main 0047  
          __size_of_dtoa 0128                 int$flags 007E                 _vfprintf 0448  
              printf@fmt 0055                printf@ret 005B                 intlevel1 0000  
               printf@ap 005D              ??_vfpfcnvrt 0043            __pstringtext1 041A  
          __pstringtext2 04E3            __pstringtext3 0513            __pstringtext4 0000  
           ___aldiv@sign 0021             ___almod@sign 007A  
